

Microchip Technology PIC18 LITE Macro Assembler V1.41 build -162212810 
                                                                                               Tue Oct 03 22:29:06 2023

Microchip Technology Omniscient Code Generator v1.41 (Free mode) build 201701250102
     1                           	processor	18F4620
     2                           	fnconf	rparam,??,?,0
     3                           	opt	pw 120
     4                           	opt	lm
     5                           	psect	idataCOMRAM,global,class=CODE,delta=1,noexec
     6                           	psect	smallconst,global,reloc=2,class=SMALLCONST,delta=1,noexec
     7                           	psect	cinit,global,reloc=2,class=CODE,delta=1
     8                           	psect	bssCOMRAM,global,class=COMRAM,space=1,delta=1,noexec
     9                           	psect	dataCOMRAM,global,class=COMRAM,space=1,delta=1,noexec
    10                           	psect	cstackBANK0,global,class=BANK0,space=1,delta=1,noexec
    11                           	psect	cstackCOMRAM,global,class=COMRAM,space=1,delta=1,noexec
    12                           	psect	text0,global,reloc=2,class=CODE,delta=1
    13                           	psect	text1,global,reloc=2,class=CODE,delta=1
    14                           	psect	text2,global,reloc=2,class=CODE,delta=1
    15                           	psect	text3,global,reloc=2,class=CODE,delta=1
    16                           	psect	text4,global,reloc=2,class=CODE,delta=1
    17                           	psect	text5,global,reloc=2,class=CODE,delta=1
    18                           	psect	text6,global,reloc=2,class=CODE,delta=1
    19                           	psect	text7,global,reloc=2,class=CODE,delta=1
    20                           	psect	text8,global,reloc=2,class=CODE,delta=1
    21                           	psect	text9,global,reloc=2,class=CODE,delta=1
    22                           	psect	text10,global,reloc=2,class=CODE,delta=1
    23                           	psect	text11,global,reloc=2,class=CODE,delta=1
    24                           	psect	text12,global,reloc=2,class=CODE,delta=1
    25                           	psect	text13,global,reloc=2,class=CODE,delta=1
    26                           	psect	text14,global,reloc=2,class=CODE,delta=1
    27                           	psect	intcode,global,reloc=2,class=CODE,delta=1
    28                           	psect	intcode_body,global,reloc=2,class=CODE,delta=1
    29                           	psect	text16,global,reloc=2,class=CODE,delta=1
    30                           	psect	text17,global,reloc=2,class=CODE,delta=1
    31                           	psect	text18,global,reloc=2,class=CODE,delta=1
    32                           	psect	text19,global,reloc=2,class=CODE,delta=1
    33                           	psect	text20,global,reloc=2,class=CODE,delta=1
    34                           	psect	text21,global,reloc=2,class=CODE,delta=1
    35                           	psect	text22,global,reloc=2,class=CODE,delta=1
    36                           	psect	intsave_regs,global,class=BIGRAM,space=1,delta=1,noexec
    37                           	psect	text23,global,reloc=2,class=CODE,delta=1
    38                           	psect	rparam,global,class=COMRAM,space=1,delta=1,noexec
    39                           	psect	temp,global,ovrld,common,class=COMRAM,space=1,delta=1
    40  0000                     
    41                           ; Version 1.41
    42                           ; Generated 25/01/2017 GMT
    43                           ; 
    44                           ; Copyright © 2017, Microchip Technology Inc. and its subsidiaries ("Microchip")
    45                           ; All rights reserved.
    46                           ; 
    47                           ; This software is developed by Microchip Technology Inc. and its subsidiaries ("Microch
      +                          ip").
    48                           ; 
    49                           ; Redistribution and use in source and binary forms, with or without modification, are
    50                           ; permitted provided that the following conditions are met:
    51                           ; 
    52                           ;     1. Redistributions of source code must retain the above copyright notice, this lis
      +                          t of
    53                           ;        conditions and the following disclaimer.
    54                           ; 
    55                           ;     2. Redistributions in binary form must reproduce the above copyright notice, this 
      +                          list
    56                           ;        of conditions and the following disclaimer in the documentation and/or other
    57                           ;        materials provided with the distribution.
    58                           ; 
    59                           ;     3. Microchip's name may not be used to endorse or promote products derived from th
      +                          is
    60                           ;        software without specific prior written permission.
    61                           ; 
    62                           ; THIS SOFTWARE IS PROVIDED BY MICROCHIP "AS IS" AND ANY EXPRESS OR IMPLIED WARRANTIES,
    63                           ; INCLUDING, BUT NOT LIMITED TO, THE IMPLIED WARRANTIES OF MERCHANTABILITY AND FITNESS F
      +                          OR
    64                           ; PURPOSE ARE DISCLAIMED.  IN NO EVENT SHALL MICROCHIP BE LIABLE FOR ANY DIRECT, INDIREC
      +                          T,
    65                           ; INCIDENTAL, SPECIAL, EXEMPLARY, OR CONSEQUENTIAL DAMAGES (INCLUDING BUT NOT LIMITED TO
    66                           ; PROCUREMENT OF SUBSTITUTE GOODS OR SERVICES; LOSS OF USE, DATA OR PROFITS; OR BUSINESS
    67                           ; INTERRUPTION) HOWSOEVER CAUSED AND ON ANY THEORY OF LIABILITY, WHETHER IN CONTRACT, ST
      +                          RICT
    68                           ; LIABILITY, OR TORT (INCLUDING NEGLIGENCE OR OTHERWISE) ARISING IN ANY WAY OUT OF THE U
      +                          SE OF
    69                           ; THIS SOFTWARE, EVEN IF ADVISED OF THE POSSIBILITY OF SUCH DAMAGE.
    70                           ; 
    71                           ; 
    72                           ; Code-generator required, PIC18F4620 Definitions
    73                           ; 
    74                           ; SFR Addresses
    75  0000                     
    76                           	psect	idataCOMRAM
    77  00153C                     __pidataCOMRAM:
    78                           	opt stack 0
    79                           
    80                           ;initializer for _keypad1
    81  00153C  02                 	db	2
    82  00153D  00                 	db	0
    83  00153E  12                 	db	18
    84  00153F  00                 	db	0
    85  001540  22                 	db	34
    86  001541  00                 	db	0
    87  001542  32                 	db	50
    88  001543  00                 	db	0
    89  001544  C2                 	db	194
    90  001545  00                 	db	0
    91  001546  D2                 	db	210
    92  001547  00                 	db	0
    93  001548  E2                 	db	226
    94  001549  00                 	db	0
    95  00154A  F2                 	db	242
    96  00154B  00                 	db	0
    97                           
    98                           ;initializer for _lat_register
    99  00154C  89                 	db	137
   100  00154D  0F                 	db	15
   101  00154E  8A                 	db	138
   102  00154F  0F                 	db	15
   103  001550  8B                 	db	139
   104  001551  0F                 	db	15
   105  001552  8C                 	db	140
   106  001553  0F                 	db	15
   107  001554  8D                 	db	141
   108  001555  0F                 	db	15
   109                           
   110                           ;initializer for _port_register
   111  001556  80                 	db	128
   112  001557  0F                 	db	15
   113  001558  81                 	db	129
   114  001559  0F                 	db	15
   115  00155A  82                 	db	130
   116  00155B  0F                 	db	15
   117  00155C  83                 	db	131
   118  00155D  0F                 	db	15
   119  00155E  84                 	db	132
   120  00155F  0F                 	db	15
   121                           
   122                           ;initializer for _tris_register
   123  001560  92                 	db	146
   124  001561  0F                 	db	15
   125  001562  93                 	db	147
   126  001563  0F                 	db	15
   127  001564  94                 	db	148
   128  001565  0F                 	db	15
   129  001566  95                 	db	149
   130  001567  0F                 	db	15
   131  001568  96                 	db	150
   132  001569  0F                 	db	15
   133                           
   134                           ;initializer for _INT2_obj
   135  00156A  20                 	db	low _INT2_APP_ISR
   136  00156B  17                 	db	high _INT2_APP_ISR
   137  00156C  A1                 	db	161
   138  00156D  00                 	db	0
   139  00156E  01                 	db	1
   140  00156F  02                 	db	2
   141  001570  01                 	db	1
   142                           
   143                           ;initializer for _INT1_obj
   144  001571  04                 	db	low _INT1_APP_ISR
   145  001572  17                 	db	high _INT1_APP_ISR
   146  001573  91                 	db	145
   147  001574  00                 	db	0
   148  001575  01                 	db	1
   149  001576  01                 	db	1
   150  001577  01                 	db	1
   151                           
   152                           ;initializer for _INT0_obj
   153  001578  12                 	db	low _INT0_APP_ISR
   154  001579  17                 	db	high _INT0_APP_ISR
   155  00157A  81                 	db	129
   156  00157B  00                 	db	0
   157  00157C  01                 	db	1
   158  00157D  00                 	db	0
   159  00157E  01                 	db	1
   160                           
   161                           ;initializer for _led3
   162  00157F  23                 	db	35
   163                           
   164                           ;initializer for _led2
   165  001580  13                 	db	19
   166                           
   167                           ;initializer for _led1
   168  001581  03                 	db	3
   169                           
   170                           	psect	smallconst
   171  001000                     __psmallconst:
   172                           	opt stack 0
   173  001000  00                 	db	0
   174  001001  37                 	db	55
   175  001002  38                 	db	56
   176  001003  39                 	db	57
   177  001004  2F                 	db	47
   178  001005  34                 	db	52
   179  001006  35                 	db	53
   180  001007  36                 	db	54
   181  001008  2A                 	db	42
   182  001009  31                 	db	49
   183  00100A  32                 	db	50
   184  00100B  33                 	db	51
   185  00100C  2D                 	db	45
   186  00100D  63                 	db	99
   187  00100E  30                 	db	48
   188  00100F  3D                 	db	61
   189  001010  2B                 	db	43
   190  001011                     __end_of_btn_values:
   191                           	opt stack 0
   192  0000                     _INTCON2bits	set	4081
   193  0000                     _INTCON3bits	set	4080
   194  0000                     _INTCONbits	set	4082
   195  0000                     _LATE	set	3981
   196  0000                     _LATD	set	3980
   197  0000                     _LATC	set	3979
   198  0000                     _LATB	set	3978
   199  0000                     _LATA	set	3977
   200  0000                     _PORTE	set	3972
   201  0000                     _PORTD	set	3971
   202  0000                     _PORTC	set	3970
   203  0000                     _PORTB	set	3969
   204  0000                     _PORTA	set	3968
   205  0000                     _TRISE	set	3990
   206  0000                     _TRISD	set	3989
   207  0000                     _TRISC	set	3988
   208  0000                     _TRISB	set	3987
   209  0000                     _TRISA	set	3986
   210                           
   211                           ; #config settings
   212  001011  00                 	db	0	; dummy byte at the end
   213  0000                     
   214                           	psect	cinit
   215  001582                     __pcinit:
   216                           	opt stack 0
   217  001582                     start_initialization:
   218                           	opt stack 0
   219  001582                     __initialization:
   220                           	opt stack 0
   221                           
   222                           ; Initialize objects allocated to COMRAM (70 bytes)
   223                           ; load TBLPTR registers with __pidataCOMRAM
   224  001582  0E3C               	movlw	low __pidataCOMRAM
   225  001584  6EF6               	movwf	tblptrl,c
   226  001586  0E15               	movlw	high __pidataCOMRAM
   227  001588  6EF7               	movwf	tblptrh,c
   228  00158A  0E00               	movlw	low (__pidataCOMRAM shr (0+16))
   229  00158C  6EF8               	movwf	tblptru,c
   230  00158E  EE00  F001         	lfsr	0,__pdataCOMRAM
   231  001592  EE10 F046          	lfsr	1,70
   232  001596                     copy_data0:
   233  001596  0009               	tblrd		*+
   234  001598  CFF5 FFEE          	movff	tablat,postinc0
   235  00159C  50E5               	movf	postdec1,w,c
   236  00159E  50E1               	movf	fsr1l,w,c
   237  0015A0  E1FA               	bnz	copy_data0
   238                           
   239                           ; Clear objects allocated to COMRAM (6 bytes)
   240  0015A2  6A68               	clrf	(__pbssCOMRAM+5)& (0+255),c
   241  0015A4  6A67               	clrf	(__pbssCOMRAM+4)& (0+255),c
   242  0015A6  6A66               	clrf	(__pbssCOMRAM+3)& (0+255),c
   243  0015A8  6A65               	clrf	(__pbssCOMRAM+2)& (0+255),c
   244  0015AA  6A64               	clrf	(__pbssCOMRAM+1)& (0+255),c
   245  0015AC  6A63               	clrf	__pbssCOMRAM& (0+255),c
   246  0015AE                     end_of_initialization:
   247                           	opt stack 0
   248  0015AE                     __end_of__initialization:
   249                           	opt stack 0
   250  0015AE  9069               	bcf	int$flags,0,c	;clear compiler interrupt flag (level 1)
   251  0015B0  9269               	bcf	int$flags,1,c	;clear compiler interrupt flag (level 2)
   252  0015B2  0100               	movlb	0
   253  0015B4  EFDC  F00A         	goto	_main	;jump to C main() function
   254                           tblptru	equ	0xFF8
   255                           tblptrh	equ	0xFF7
   256                           tblptrl	equ	0xFF6
   257                           tablat	equ	0xFF5
   258                           postinc0	equ	0xFEE
   259                           postdec1	equ	0xFE5
   260                           fsr1l	equ	0xFE1
   261                           
   262                           	psect	bssCOMRAM
   263  000063                     __pbssCOMRAM:
   264                           	opt stack 0
   265  000063                     _INT2_InterruptHandler:
   266                           	opt stack 0
   267  000063                     	ds	2
   268  000065                     _INT1_InterruptHandler:
   269                           	opt stack 0
   270  000065                     	ds	2
   271  000067                     _INT0_InterruptHandler:
   272                           	opt stack 0
   273  000067                     	ds	2
   274                           tblptru	equ	0xFF8
   275                           tblptrh	equ	0xFF7
   276                           tblptrl	equ	0xFF6
   277                           tablat	equ	0xFF5
   278                           postinc0	equ	0xFEE
   279                           postdec1	equ	0xFE5
   280                           fsr1l	equ	0xFE1
   281                           
   282                           	psect	dataCOMRAM
   283  000001                     __pdataCOMRAM:
   284                           	opt stack 0
   285  000001                     _keypad1:
   286                           	opt stack 0
   287  000001                     	ds	16
   288  000011                     _lat_register:
   289                           	opt stack 0
   290  000011                     	ds	10
   291  00001B                     _port_register:
   292                           	opt stack 0
   293  00001B                     	ds	10
   294  000025                     _tris_register:
   295                           	opt stack 0
   296  000025                     	ds	10
   297  00002F                     _INT2_obj:
   298                           	opt stack 0
   299  00002F                     	ds	7
   300  000036                     _INT1_obj:
   301                           	opt stack 0
   302  000036                     	ds	7
   303  00003D                     _INT0_obj:
   304                           	opt stack 0
   305  00003D                     	ds	7
   306  000044                     _led3:
   307                           	opt stack 0
   308  000044                     	ds	1
   309  000045                     _led2:
   310                           	opt stack 0
   311  000045                     	ds	1
   312  000046                     _led1:
   313                           	opt stack 0
   314  000046                     	ds	1
   315                           tblptru	equ	0xFF8
   316                           tblptrh	equ	0xFF7
   317                           tblptrl	equ	0xFF6
   318                           tablat	equ	0xFF5
   319                           postinc0	equ	0xFEE
   320                           postdec1	equ	0xFE5
   321                           fsr1l	equ	0xFE1
   322                           
   323                           	psect	cstackBANK0
   324  000080                     __pcstackBANK0:
   325                           	opt stack 0
   326  000080                     ??_gpio_pin_direction_intialize:
   327  000080                     ??_led_initizlize:
   328                           
   329                           ; 1 bytes @ 0x0
   330  000080                     	ds	6
   331  000086                     Interrupt_INTx_Init@int_obj:
   332                           	opt stack 0
   333                           
   334                           ; 2 bytes @ 0x6
   335  000086                     	ds	2
   336  000088                     Interrupt_INTx_Init@ret:
   337                           	opt stack 0
   338                           
   339                           ; 1 bytes @ 0x8
   340  000088                     	ds	1
   341                           tblptru	equ	0xFF8
   342                           tblptrh	equ	0xFF7
   343                           tblptrl	equ	0xFF6
   344                           tablat	equ	0xFF5
   345                           postinc0	equ	0xFEE
   346                           postdec1	equ	0xFE5
   347                           fsr1l	equ	0xFE1
   348                           
   349                           	psect	cstackCOMRAM
   350  000047                     __pcstackCOMRAM:
   351                           	opt stack 0
   352  000047                     led_toggle@led:
   353                           	opt stack 0
   354                           
   355                           ; 2 bytes @ 0x0
   356  000047                     	ds	2
   357  000049                     ??_led_toggle:
   358                           
   359                           ; 1 bytes @ 0x2
   360  000049                     	ds	5
   361  00004E                     led_toggle@Local_Status:
   362                           	opt stack 0
   363                           
   364                           ; 1 bytes @ 0x7
   365  00004E                     	ds	1
   366  00004F                     ??_InterruptManager:
   367                           
   368                           ; 1 bytes @ 0x8
   369  00004F                     	ds	14
   370  00005D                     led_initizlize@led:
   371                           	opt stack 0
   372  00005D                     gpio_pin_direction_intialize@_pin_config:
   373                           	opt stack 0
   374  00005D                     Interrupt_INTx_Enable@int_obj:
   375                           	opt stack 0
   376  00005D                     Interrupt_INTx_Disable@int_obj:
   377                           	opt stack 0
   378  00005D                     Interrupt_INTx_Edge_Init@int_obj:
   379                           	opt stack 0
   380  00005D                     Interrupt_INTx_Clear_Flag@int_obj:
   381                           	opt stack 0
   382  00005D                     INT0_SetInterruptHandler@InterruptHandler:
   383                           	opt stack 0
   384  00005D                     INT1_SetInterruptHandler@InterruptHandler:
   385                           	opt stack 0
   386  00005D                     INT2_SetInterruptHandler@InterruptHandler:
   387                           	opt stack 0
   388                           
   389                           ; 2 bytes @ 0x16
   390  00005D                     	ds	2
   391  00005F                     led_initizlize@Local_Status:
   392                           	opt stack 0
   393  00005F                     gpio_pin_direction_intialize@LocalReturn:
   394                           	opt stack 0
   395  00005F                     Interrupt_INTx_Enable@ret:
   396                           	opt stack 0
   397  00005F                     Interrupt_INTx_Disable@ret:
   398                           	opt stack 0
   399  00005F                     Interrupt_INTx_Clear_Flag@ret:
   400                           	opt stack 0
   401  00005F                     INT0_SetInterruptHandler@ret:
   402                           	opt stack 0
   403  00005F                     INT1_SetInterruptHandler@ret:
   404                           	opt stack 0
   405  00005F                     INT2_SetInterruptHandler@ret:
   406                           	opt stack 0
   407                           
   408                           ; 1 bytes @ 0x18
   409  00005F                     	ds	1
   410  000060                     ecu_layer_initialize@ret:
   411                           	opt stack 0
   412  000060                     Interrupt_INTx_Edge_Init@ret:
   413                           	opt stack 0
   414  000060                     Interrupt_INTx_Pin_Init@int_obj:
   415                           	opt stack 0
   416  000060                     Interrupt_INTx_SetInterruptHandler@int_obj:
   417                           	opt stack 0
   418                           
   419                           ; 2 bytes @ 0x19
   420  000060                     	ds	1
   421  000061                     
   422                           ; 1 bytes @ 0x1A
   423  000061                     	ds	1
   424  000062                     Interrupt_INTx_Pin_Init@ret:
   425                           	opt stack 0
   426  000062                     Interrupt_INTx_SetInterruptHandler@ret:
   427                           	opt stack 0
   428                           
   429                           ; 1 bytes @ 0x1B
   430  000062                     	ds	1
   431  000063                     tblptru	equ	0xFF8
   432                           tblptrh	equ	0xFF7
   433                           tblptrl	equ	0xFF6
   434                           tablat	equ	0xFF5
   435                           postinc0	equ	0xFEE
   436                           postdec1	equ	0xFE5
   437                           fsr1l	equ	0xFE1
   438                           
   439                           ; 1 bytes @ 0x1C
   440 ;;
   441 ;;Main: autosize = 0, tempsize = 0, incstack = 0, save=0
   442 ;;
   443 ;; *************** function _main *****************
   444 ;; Defined at:
   445 ;;		line 57 in file "application.c"
   446 ;; Parameters:    Size  Location     Type
   447 ;;		None
   448 ;; Auto vars:     Size  Location     Type
   449 ;;		None
   450 ;; Return value:  Size  Location     Type
   451 ;;                  2  636[None  ] int 
   452 ;; Registers used:
   453 ;;		wreg, fsr2l, fsr2h, status,2, status,0, prodl, prodh, cstack
   454 ;; Tracked objects:
   455 ;;		On entry : 0/0
   456 ;;		On exit  : 0/0
   457 ;;		Unchanged: 0/0
   458 ;; Data sizes:     COMRAM   BANK0   BANK1   BANK2   BANK3   BANK4   BANK5   BANK6   BANK7   BANK8   BANK9  BANK10  BANK1
      +1  BANK12  BANK13  BANK14  BANK15
   459 ;;      Params:         0       0       0       0       0       0       0       0       0       0       0       0       
      +0       0       0       0       0
   460 ;;      Locals:         0       0       0       0       0       0       0       0       0       0       0       0       
      +0       0       0       0       0
   461 ;;      Temps:          0       0       0       0       0       0       0       0       0       0       0       0       
      +0       0       0       0       0
   462 ;;      Totals:         0       0       0       0       0       0       0       0       0       0       0       0       
      +0       0       0       0       0
   463 ;;Total ram usage:        0 bytes
   464 ;; Hardware stack levels required when called:    7
   465 ;; This function calls:
   466 ;;		_Interrupt_INTx_Init
   467 ;;		_functionInitialize
   468 ;; This function is called by:
   469 ;;		Startup code after reset
   470 ;; This function uses a non-reentrant model
   471 ;;
   472                           
   473                           	psect	text0
   474  0015B8                     __ptext0:
   475                           	opt stack 0
   476  0015B8                     _main:
   477                           	opt stack 24
   478                           
   479                           ;application.c: 58: functionInitialize();
   480                           
   481                           ;incstack = 0
   482  0015B8  EC97  F00B         	call	_functionInitialize	;wreg free
   483                           
   484                           ;application.c: 59: Interrupt_INTx_Init(&INT0_obj);
   485  0015BC  0E3D               	movlw	low _INT0_obj
   486  0015BE  0100               	movlb	0	; () banked
   487  0015C0  6F86               	movwf	Interrupt_INTx_Init@int_obj& (0+255),b
   488  0015C2  0E00               	movlw	high _INT0_obj
   489  0015C4  0100               	movlb	0	; () banked
   490  0015C6  6F87               	movwf	(Interrupt_INTx_Init@int_obj+1)& (0+255),b
   491  0015C8  EC79  F009         	call	_Interrupt_INTx_Init	;wreg free
   492                           
   493                           ;application.c: 60: Interrupt_INTx_Init(&INT1_obj);
   494  0015CC  0E36               	movlw	low _INT1_obj
   495  0015CE  0100               	movlb	0	; () banked
   496  0015D0  6F86               	movwf	Interrupt_INTx_Init@int_obj& (0+255),b
   497  0015D2  0E00               	movlw	high _INT1_obj
   498  0015D4  0100               	movlb	0	; () banked
   499  0015D6  6F87               	movwf	(Interrupt_INTx_Init@int_obj+1)& (0+255),b
   500  0015D8  EC79  F009         	call	_Interrupt_INTx_Init	;wreg free
   501                           
   502                           ;application.c: 61: Interrupt_INTx_Init(&INT2_obj);
   503  0015DC  0E2F               	movlw	low _INT2_obj
   504  0015DE  0100               	movlb	0	; () banked
   505  0015E0  6F86               	movwf	Interrupt_INTx_Init@int_obj& (0+255),b
   506  0015E2  0E00               	movlw	high _INT2_obj
   507  0015E4  0100               	movlb	0	; () banked
   508  0015E6  6F87               	movwf	(Interrupt_INTx_Init@int_obj+1)& (0+255),b
   509  0015E8  EC79  F009         	call	_Interrupt_INTx_Init	;wreg free
   510  0015EC                     l637:
   511  0015EC  D7FF               	goto	l637
   512  0015EE                     __end_of_main:
   513                           	opt stack 0
   514                           tblptru	equ	0xFF8
   515                           tblptrh	equ	0xFF7
   516                           tblptrl	equ	0xFF6
   517                           tablat	equ	0xFF5
   518                           postinc0	equ	0xFEE
   519                           postdec1	equ	0xFE5
   520                           fsr1l	equ	0xFE1
   521                           
   522 ;; *************** function _functionInitialize *****************
   523 ;; Defined at:
   524 ;;		line 66 in file "application.c"
   525 ;; Parameters:    Size  Location     Type
   526 ;;		None
   527 ;; Auto vars:     Size  Location     Type
   528 ;;		None
   529 ;; Return value:  Size  Location     Type
   530 ;;                  1    wreg      void 
   531 ;; Registers used:
   532 ;;		wreg, fsr2l, fsr2h, status,2, status,0, prodl, prodh, cstack
   533 ;; Tracked objects:
   534 ;;		On entry : 0/0
   535 ;;		On exit  : 0/0
   536 ;;		Unchanged: 0/0
   537 ;; Data sizes:     COMRAM   BANK0   BANK1   BANK2   BANK3   BANK4   BANK5   BANK6   BANK7   BANK8   BANK9  BANK10  BANK1
      +1  BANK12  BANK13  BANK14  BANK15
   538 ;;      Params:         0       0       0       0       0       0       0       0       0       0       0       0       
      +0       0       0       0       0
   539 ;;      Locals:         0       0       0       0       0       0       0       0       0       0       0       0       
      +0       0       0       0       0
   540 ;;      Temps:          0       0       0       0       0       0       0       0       0       0       0       0       
      +0       0       0       0       0
   541 ;;      Totals:         0       0       0       0       0       0       0       0       0       0       0       0       
      +0       0       0       0       0
   542 ;;Total ram usage:        0 bytes
   543 ;; Hardware stack levels used:    1
   544 ;; Hardware stack levels required when called:    6
   545 ;; This function calls:
   546 ;;		_ecu_layer_initialize
   547 ;; This function is called by:
   548 ;;		_main
   549 ;; This function uses a non-reentrant model
   550 ;;
   551                           
   552                           	psect	text1
   553  00172E                     __ptext1:
   554                           	opt stack 0
   555  00172E                     _functionInitialize:
   556                           	opt stack 24
   557                           
   558                           ;application.c: 67: ecu_layer_initialize();
   559                           
   560                           ;incstack = 0
   561  00172E  ECF7  F00A         	call	_ecu_layer_initialize	;wreg free
   562  001732  0012               	return		;funcret
   563  001734                     __end_of_functionInitialize:
   564                           	opt stack 0
   565                           tblptru	equ	0xFF8
   566                           tblptrh	equ	0xFF7
   567                           tblptrl	equ	0xFF6
   568                           tablat	equ	0xFF5
   569                           postinc0	equ	0xFEE
   570                           postdec1	equ	0xFE5
   571                           fsr1l	equ	0xFE1
   572                           
   573 ;; *************** function _ecu_layer_initialize *****************
   574 ;; Defined at:
   575 ;;		line 68 in file "ECU_Layer/ecu_layer_prog.c"
   576 ;; Parameters:    Size  Location     Type
   577 ;;		None
   578 ;; Auto vars:     Size  Location     Type
   579 ;;  ret             1   25[COMRAM] unsigned char 
   580 ;; Return value:  Size  Location     Type
   581 ;;                  1    wreg      unsigned char 
   582 ;; Registers used:
   583 ;;		wreg, fsr2l, fsr2h, status,2, status,0, prodl, prodh, cstack
   584 ;; Tracked objects:
   585 ;;		On entry : 0/0
   586 ;;		On exit  : 0/0
   587 ;;		Unchanged: 0/0
   588 ;; Data sizes:     COMRAM   BANK0   BANK1   BANK2   BANK3   BANK4   BANK5   BANK6   BANK7   BANK8   BANK9  BANK10  BANK1
      +1  BANK12  BANK13  BANK14  BANK15
   589 ;;      Params:         0       0       0       0       0       0       0       0       0       0       0       0       
      +0       0       0       0       0
   590 ;;      Locals:         1       0       0       0       0       0       0       0       0       0       0       0       
      +0       0       0       0       0
   591 ;;      Temps:          0       0       0       0       0       0       0       0       0       0       0       0       
      +0       0       0       0       0
   592 ;;      Totals:         1       0       0       0       0       0       0       0       0       0       0       0       
      +0       0       0       0       0
   593 ;;Total ram usage:        1 bytes
   594 ;; Hardware stack levels used:    1
   595 ;; Hardware stack levels required when called:    5
   596 ;; This function calls:
   597 ;;		_led_initizlize
   598 ;; This function is called by:
   599 ;;		_functionInitialize
   600 ;; This function uses a non-reentrant model
   601 ;;
   602                           
   603                           	psect	text2
   604  0015EE                     __ptext2:
   605                           	opt stack 0
   606  0015EE                     _ecu_layer_initialize:
   607                           	opt stack 24
   608                           
   609                           ;ecu_layer_prog.c: 69: Std_ReturnType ret=(Std_ReturnType)0x00;
   610                           
   611                           ;incstack = 0
   612  0015EE  0E00               	movlw	0
   613  0015F0  6E60               	movwf	ecu_layer_initialize@ret,c
   614                           
   615                           ;ecu_layer_prog.c: 70: ret=led_initizlize(&led1);
   616  0015F2  0E46               	movlw	low _led1
   617  0015F4  6E5D               	movwf	led_initizlize@led,c
   618  0015F6  0E00               	movlw	high _led1
   619  0015F8  6E5E               	movwf	led_initizlize@led+1,c
   620  0015FA  EC38  F009         	call	_led_initizlize	;wreg free
   621  0015FE  6E60               	movwf	ecu_layer_initialize@ret,c
   622                           
   623                           ;ecu_layer_prog.c: 71: ret=led_initizlize(&led2);
   624  001600  0E45               	movlw	low _led2
   625  001602  6E5D               	movwf	led_initizlize@led,c
   626  001604  0E00               	movlw	high _led2
   627  001606  6E5E               	movwf	led_initizlize@led+1,c
   628  001608  EC38  F009         	call	_led_initizlize	;wreg free
   629  00160C  6E60               	movwf	ecu_layer_initialize@ret,c
   630                           
   631                           ;ecu_layer_prog.c: 72: ret=led_initizlize(&led3);
   632  00160E  0E44               	movlw	low _led3
   633  001610  6E5D               	movwf	led_initizlize@led,c
   634  001612  0E00               	movlw	high _led3
   635  001614  6E5E               	movwf	led_initizlize@led+1,c
   636  001616  EC38  F009         	call	_led_initizlize	;wreg free
   637  00161A  6E60               	movwf	ecu_layer_initialize@ret,c
   638  00161C  0012               	return	
   639  00161E                     __end_of_ecu_layer_initialize:
   640                           	opt stack 0
   641                           tblptru	equ	0xFF8
   642                           tblptrh	equ	0xFF7
   643                           tblptrl	equ	0xFF6
   644                           tablat	equ	0xFF5
   645                           postinc0	equ	0xFEE
   646                           postdec1	equ	0xFE5
   647                           fsr1l	equ	0xFE1
   648                           
   649 ;; *************** function _led_initizlize *****************
   650 ;; Defined at:
   651 ;;		line 15 in file "ECU_Layer/LED_Driver/ecu_led_prog.c"
   652 ;; Parameters:    Size  Location     Type
   653 ;;  led             2   22[COMRAM] PTR const struct .
   654 ;;		 -> led3(1), led2(1), led1(1), 
   655 ;; Auto vars:     Size  Location     Type
   656 ;;  Local_Status    1   24[COMRAM] unsigned char 
   657 ;; Return value:  Size  Location     Type
   658 ;;                  1    wreg      unsigned char 
   659 ;; Registers used:
   660 ;;		wreg, fsr2l, fsr2h, status,2, status,0, prodl, prodh
   661 ;; Tracked objects:
   662 ;;		On entry : 0/0
   663 ;;		On exit  : 0/0
   664 ;;		Unchanged: 0/0
   665 ;; Data sizes:     COMRAM   BANK0   BANK1   BANK2   BANK3   BANK4   BANK5   BANK6   BANK7   BANK8   BANK9  BANK10  BANK1
      +1  BANK12  BANK13  BANK14  BANK15
   666 ;;      Params:         2       0       0       0       0       0       0       0       0       0       0       0       
      +0       0       0       0       0
   667 ;;      Locals:         1       0       0       0       0       0       0       0       0       0       0       0       
      +0       0       0       0       0
   668 ;;      Temps:          0       6       0       0       0       0       0       0       0       0       0       0       
      +0       0       0       0       0
   669 ;;      Totals:         3       6       0       0       0       0       0       0       0       0       0       0       
      +0       0       0       0       0
   670 ;;Total ram usage:        9 bytes
   671 ;; Hardware stack levels used:    1
   672 ;; Hardware stack levels required when called:    4
   673 ;; This function calls:
   674 ;;		Nothing
   675 ;; This function is called by:
   676 ;;		_ecu_layer_initialize
   677 ;; This function uses a non-reentrant model
   678 ;;
   679                           
   680                           	psect	text3
   681  001270                     __ptext3:
   682                           	opt stack 0
   683  001270                     _led_initizlize:
   684                           	opt stack 24
   685                           
   686                           ;ecu_led_prog.c: 16: Std_ReturnType Local_Status=(Std_ReturnType)0x00;
   687                           
   688                           ;incstack = 0
   689  001270  0E00               	movlw	0
   690  001272  6E5F               	movwf	led_initizlize@Local_Status,c
   691                           
   692                           ;ecu_led_prog.c: 17: if((0) == led){
   693  001274  505D               	movf	led_initizlize@led,w,c
   694  001276  105E               	iorwf	led_initizlize@led+1,w,c
   695  001278  A4D8               	btfss	status,2,c
   696  00127A  D002               	goto	l2850
   697                           
   698                           ;ecu_led_prog.c: 18: Local_Status=(Std_ReturnType)0x00;
   699  00127C  0E00               	movlw	0
   700  00127E  D036               	goto	L1
   701  001280                     l2850:
   702                           
   703                           ;ecu_led_prog.c: 20: (*tris_register[led->port_index] &= ~((uint8)1 << led->pin_num));
   704  001280  C05D  FFD9         	movff	led_initizlize@led,fsr2l
   705  001284  C05E  FFDA         	movff	led_initizlize@led+1,fsr2h
   706  001288  38DF               	swapf	indf2,w,c
   707  00128A  0B07               	andlw	7
   708  00128C  0100               	movlb	0	; () banked
   709  00128E  6F80               	movwf	??_led_initizlize& (0+255),b
   710  001290  0E01               	movlw	1
   711  001292  0100               	movlb	0	; () banked
   712  001294  6F81               	movwf	(??_led_initizlize+1)& (0+255),b
   713  001296  0100               	movlb	0	; () banked
   714  001298  2B80               	incf	??_led_initizlize& (0+255),f,b
   715  00129A  D003               	goto	u1794
   716  00129C                     u1795:
   717  00129C  0100               	movlb	0	; () banked
   718  00129E  90D8               	bcf	status,0,c
   719  0012A0  3781               	rlcf	(??_led_initizlize+1)& (0+255),f,b
   720  0012A2                     u1794:
   721  0012A2  0100               	movlb	0	; () banked
   722  0012A4  2F80               	decfsz	??_led_initizlize& (0+255),f,b
   723  0012A6  D7FA               	goto	u1795
   724  0012A8  0100               	movlb	0	; () banked
   725  0012AA  5181               	movf	(??_led_initizlize+1)& (0+255),w,b
   726  0012AC  0AFF               	xorlw	255
   727  0012AE  0100               	movlb	0	; () banked
   728  0012B0  6F82               	movwf	(??_led_initizlize+2)& (0+255),b
   729  0012B2  C05D  FFD9         	movff	led_initizlize@led,fsr2l
   730  0012B6  C05E  FFDA         	movff	led_initizlize@led+1,fsr2h
   731  0012BA  50DF               	movf	indf2,w,c
   732  0012BC  0B0F               	andlw	15
   733  0012BE  0100               	movlb	0	; () banked
   734  0012C0  6F83               	movwf	(??_led_initizlize+3)& (0+255),b
   735  0012C2  0100               	movlb	0	; () banked
   736  0012C4  5183               	movf	(??_led_initizlize+3)& (0+255),w,b
   737  0012C6  0D02               	mullw	2
   738  0012C8  0E25               	movlw	low _tris_register
   739  0012CA  24F3               	addwf	prodl,w,c
   740  0012CC  6ED9               	movwf	fsr2l,c
   741  0012CE  0E00               	movlw	high _tris_register
   742  0012D0  20F4               	addwfc	prodh,w,c
   743  0012D2  6EDA               	movwf	fsr2h,c
   744  0012D4  CFDE F084          	movff	postinc2,??_led_initizlize+4
   745  0012D8  CFDD F085          	movff	postdec2,??_led_initizlize+5
   746  0012DC  C084  FFD9         	movff	??_led_initizlize+4,fsr2l
   747  0012E0  C085  FFDA         	movff	??_led_initizlize+5,fsr2h
   748  0012E4  0100               	movlb	0	; () banked
   749  0012E6  5182               	movf	(??_led_initizlize+2)& (0+255),w,b
   750  0012E8  16DF               	andwf	indf2,f,c
   751                           
   752                           ; BSR set to: 0
   753                           ;ecu_led_prog.c: 21: Local_Status=(Std_ReturnType)0x01;
   754  0012EA  0E01               	movlw	1
   755  0012EC                     L1:
   756  0012EC  6E5F               	movwf	led_initizlize@Local_Status,c
   757                           
   758                           ;ecu_led_prog.c: 22: }
   759                           ;ecu_led_prog.c: 23: return Local_Status;
   760                           
   761                           ; BSR set to: 0
   762  0012EE  505F               	movf	led_initizlize@Local_Status,w,c
   763  0012F0  0012               	return	
   764  0012F2                     __end_of_led_initizlize:
   765                           	opt stack 0
   766                           tblptru	equ	0xFF8
   767                           tblptrh	equ	0xFF7
   768                           tblptrl	equ	0xFF6
   769                           tablat	equ	0xFF5
   770                           prodh	equ	0xFF4
   771                           prodl	equ	0xFF3
   772                           postinc0	equ	0xFEE
   773                           postdec1	equ	0xFE5
   774                           fsr1l	equ	0xFE1
   775                           indf2	equ	0xFDF
   776                           postinc2	equ	0xFDE
   777                           postdec2	equ	0xFDD
   778                           fsr2h	equ	0xFDA
   779                           fsr2l	equ	0xFD9
   780                           status	equ	0xFD8
   781                           
   782 ;; *************** function _Interrupt_INTx_Init *****************
   783 ;; Defined at:
   784 ;;		line 39 in file "MCAL_Layer/Interrupt_Driver/mcal_external_interrupt.c"
   785 ;; Parameters:    Size  Location     Type
   786 ;;  int_obj         2    6[BANK0 ] PTR const struct .
   787 ;;		 -> INT2_obj(7), INT1_obj(7), INT0_obj(7), 
   788 ;; Auto vars:     Size  Location     Type
   789 ;;  ret             1    8[BANK0 ] unsigned char 
   790 ;; Return value:  Size  Location     Type
   791 ;;                  1    wreg      unsigned char 
   792 ;; Registers used:
   793 ;;		wreg, fsr2l, fsr2h, status,2, status,0, prodl, prodh, cstack
   794 ;; Tracked objects:
   795 ;;		On entry : 0/0
   796 ;;		On exit  : 0/0
   797 ;;		Unchanged: 0/0
   798 ;; Data sizes:     COMRAM   BANK0   BANK1   BANK2   BANK3   BANK4   BANK5   BANK6   BANK7   BANK8   BANK9  BANK10  BANK1
      +1  BANK12  BANK13  BANK14  BANK15
   799 ;;      Params:         0       2       0       0       0       0       0       0       0       0       0       0       
      +0       0       0       0       0
   800 ;;      Locals:         0       1       0       0       0       0       0       0       0       0       0       0       
      +0       0       0       0       0
   801 ;;      Temps:          0       0       0       0       0       0       0       0       0       0       0       0       
      +0       0       0       0       0
   802 ;;      Totals:         0       3       0       0       0       0       0       0       0       0       0       0       
      +0       0       0       0       0
   803 ;;Total ram usage:        3 bytes
   804 ;; Hardware stack levels used:    1
   805 ;; Hardware stack levels required when called:    6
   806 ;; This function calls:
   807 ;;		_Interrupt_INTx_Clear_Flag
   808 ;;		_Interrupt_INTx_Disable
   809 ;;		_Interrupt_INTx_Edge_Init
   810 ;;		_Interrupt_INTx_Enable
   811 ;;		_Interrupt_INTx_Pin_Init
   812 ;;		_Interrupt_INTx_SetInterruptHandler
   813 ;; This function is called by:
   814 ;;		_main
   815 ;; This function uses a non-reentrant model
   816 ;;
   817                           
   818                           	psect	text4
   819  0012F2                     __ptext4:
   820                           	opt stack 0
   821  0012F2                     _Interrupt_INTx_Init:
   822                           	opt stack 24
   823                           
   824                           ;mcal_external_interrupt.c: 40: Std_ReturnType ret = (Std_ReturnType)0x00;
   825                           
   826                           ;incstack = 0
   827  0012F2  0E00               	movlw	0
   828  0012F4  0100               	movlb	0	; () banked
   829  0012F6  6F88               	movwf	Interrupt_INTx_Init@ret& (0+255),b
   830                           
   831                           ; BSR set to: 0
   832                           ;mcal_external_interrupt.c: 41: if((0) == int_obj){
   833  0012F8  0100               	movlb	0	; () banked
   834  0012FA  5186               	movf	Interrupt_INTx_Init@int_obj& (0+255),w,b
   835  0012FC  0100               	movlb	0	; () banked
   836  0012FE  1187               	iorwf	(Interrupt_INTx_Init@int_obj+1)& (0+255),w,b
   837  001300  A4D8               	btfss	status,2,c
   838  001302  D004               	goto	l3054
   839                           
   840                           ; BSR set to: 0
   841                           ;mcal_external_interrupt.c: 42: ret = (Std_ReturnType)0x00;
   842  001304  0E00               	movlw	0
   843  001306  0100               	movlb	0	; () banked
   844  001308  6F88               	movwf	Interrupt_INTx_Init@ret& (0+255),b
   845                           
   846                           ;mcal_external_interrupt.c: 43: }
   847  00130A  0012               	return	
   848  00130C                     l3054:
   849                           
   850                           ; BSR set to: 0
   851                           ;mcal_external_interrupt.c: 44: else{
   852                           ;mcal_external_interrupt.c: 46: ret = Interrupt_INTx_Disable(int_obj);
   853  00130C  C086  F05D         	movff	Interrupt_INTx_Init@int_obj,Interrupt_INTx_Disable@int_obj
   854  001310  C087  F05E         	movff	Interrupt_INTx_Init@int_obj+1,Interrupt_INTx_Disable@int_obj+1
   855  001314  EC54  F00A         	call	_Interrupt_INTx_Disable	;wreg free
   856  001318  0100               	movlb	0	; () banked
   857  00131A  6F88               	movwf	Interrupt_INTx_Init@ret& (0+255),b
   858                           
   859                           ;mcal_external_interrupt.c: 48: ret |= Interrupt_INTx_Clear_Flag(int_obj);
   860  00131C  C086  F05D         	movff	Interrupt_INTx_Init@int_obj,Interrupt_INTx_Clear_Flag@int_obj
   861  001320  C087  F05E         	movff	Interrupt_INTx_Init@int_obj+1,Interrupt_INTx_Clear_Flag@int_obj+1
   862  001324  EC79  F00A         	call	_Interrupt_INTx_Clear_Flag	;wreg free
   863  001328  0100               	movlb	0	; () banked
   864  00132A  1388               	iorwf	Interrupt_INTx_Init@ret& (0+255),f,b
   865                           
   866                           ;mcal_external_interrupt.c: 50: ret |= Interrupt_INTx_Edge_Init(int_obj);
   867  00132C  C086  F05D         	movff	Interrupt_INTx_Init@int_obj,Interrupt_INTx_Edge_Init@int_obj
   868  001330  C087  F05E         	movff	Interrupt_INTx_Init@int_obj+1,Interrupt_INTx_Edge_Init@int_obj+1
   869  001334  EC8C  F008         	call	_Interrupt_INTx_Edge_Init	;wreg free
   870  001338  0100               	movlb	0	; () banked
   871  00133A  1388               	iorwf	Interrupt_INTx_Init@ret& (0+255),f,b
   872                           
   873                           ; BSR set to: 0
   874                           ;mcal_external_interrupt.c: 52: ret |= Interrupt_INTx_Pin_Init(int_obj);
   875  00133C  C086  F060         	movff	Interrupt_INTx_Init@int_obj,Interrupt_INTx_Pin_Init@int_obj
   876  001340  C087  F061         	movff	Interrupt_INTx_Init@int_obj+1,Interrupt_INTx_Pin_Init@int_obj+1
   877  001344  EC0F  F00B         	call	_Interrupt_INTx_Pin_Init	;wreg free
   878  001348  0100               	movlb	0	; () banked
   879  00134A  1388               	iorwf	Interrupt_INTx_Init@ret& (0+255),f,b
   880                           
   881                           ; BSR set to: 0
   882                           ;mcal_external_interrupt.c: 54: ret |= Interrupt_INTx_SetInterruptHandler(int_obj);
   883  00134C  C086  F060         	movff	Interrupt_INTx_Init@int_obj,Interrupt_INTx_SetInterruptHandler@int_obj
   884  001350  C087  F061         	movff	Interrupt_INTx_Init@int_obj+1,Interrupt_INTx_SetInterruptHandler@int_obj+1
   885  001354  ECB7  F009         	call	_Interrupt_INTx_SetInterruptHandler	;wreg free
   886  001358  0100               	movlb	0	; () banked
   887  00135A  1388               	iorwf	Interrupt_INTx_Init@ret& (0+255),f,b
   888                           
   889                           ; BSR set to: 0
   890                           ;mcal_external_interrupt.c: 56: ret |= Interrupt_INTx_Enable(int_obj);
   891  00135C  C086  F05D         	movff	Interrupt_INTx_Init@int_obj,Interrupt_INTx_Enable@int_obj
   892  001360  C087  F05E         	movff	Interrupt_INTx_Init@int_obj+1,Interrupt_INTx_Enable@int_obj+1
   893  001364  EC29  F00A         	call	_Interrupt_INTx_Enable	;wreg free
   894  001368  0100               	movlb	0	; () banked
   895  00136A  1388               	iorwf	Interrupt_INTx_Init@ret& (0+255),f,b
   896                           
   897                           ; BSR set to: 0
   898  00136C  0012               	return	
   899  00136E                     __end_of_Interrupt_INTx_Init:
   900                           	opt stack 0
   901                           tblptru	equ	0xFF8
   902                           tblptrh	equ	0xFF7
   903                           tblptrl	equ	0xFF6
   904                           tablat	equ	0xFF5
   905                           prodh	equ	0xFF4
   906                           prodl	equ	0xFF3
   907                           postinc0	equ	0xFEE
   908                           postdec1	equ	0xFE5
   909                           fsr1l	equ	0xFE1
   910                           indf2	equ	0xFDF
   911                           postinc2	equ	0xFDE
   912                           postdec2	equ	0xFDD
   913                           fsr2h	equ	0xFDA
   914                           fsr2l	equ	0xFD9
   915                           status	equ	0xFD8
   916                           
   917 ;; *************** function _Interrupt_INTx_SetInterruptHandler *****************
   918 ;; Defined at:
   919 ;;		line 433 in file "MCAL_Layer/Interrupt_Driver/mcal_external_interrupt.c"
   920 ;; Parameters:    Size  Location     Type
   921 ;;  int_obj         2   25[COMRAM] PTR const struct .
   922 ;;		 -> INT2_obj(7), INT1_obj(7), INT0_obj(7), 
   923 ;; Auto vars:     Size  Location     Type
   924 ;;  ret             1   27[COMRAM] unsigned char 
   925 ;; Return value:  Size  Location     Type
   926 ;;                  1    wreg      unsigned char 
   927 ;; Registers used:
   928 ;;		wreg, fsr2l, fsr2h, status,2, status,0, cstack
   929 ;; Tracked objects:
   930 ;;		On entry : 0/0
   931 ;;		On exit  : 0/0
   932 ;;		Unchanged: 0/0
   933 ;; Data sizes:     COMRAM   BANK0   BANK1   BANK2   BANK3   BANK4   BANK5   BANK6   BANK7   BANK8   BANK9  BANK10  BANK1
      +1  BANK12  BANK13  BANK14  BANK15
   934 ;;      Params:         2       0       0       0       0       0       0       0       0       0       0       0       
      +0       0       0       0       0
   935 ;;      Locals:         1       0       0       0       0       0       0       0       0       0       0       0       
      +0       0       0       0       0
   936 ;;      Temps:          0       0       0       0       0       0       0       0       0       0       0       0       
      +0       0       0       0       0
   937 ;;      Totals:         3       0       0       0       0       0       0       0       0       0       0       0       
      +0       0       0       0       0
   938 ;;Total ram usage:        3 bytes
   939 ;; Hardware stack levels used:    1
   940 ;; Hardware stack levels required when called:    5
   941 ;; This function calls:
   942 ;;		_INT0_SetInterruptHandler
   943 ;;		_INT1_SetInterruptHandler
   944 ;;		_INT2_SetInterruptHandler
   945 ;; This function is called by:
   946 ;;		_Interrupt_INTx_Init
   947 ;; This function uses a non-reentrant model
   948 ;;
   949                           
   950                           	psect	text5
   951  00136E                     __ptext5:
   952                           	opt stack 0
   953  00136E                     _Interrupt_INTx_SetInterruptHandler:
   954                           	opt stack 24
   955                           
   956                           ;mcal_external_interrupt.c: 434: Std_ReturnType ret = (Std_ReturnType)0x00;
   957                           
   958                           ; BSR set to: 0
   959                           ;incstack = 0
   960  00136E  0E00               	movlw	0
   961  001370  6E62               	movwf	Interrupt_INTx_SetInterruptHandler@ret,c
   962                           
   963                           ;mcal_external_interrupt.c: 435: if((0) == int_obj){
   964  001372  5060               	movf	Interrupt_INTx_SetInterruptHandler@int_obj,w,c
   965  001374  1061               	iorwf	Interrupt_INTx_SetInterruptHandler@int_obj+1,w,c
   966  001376  A4D8               	btfss	status,2,c
   967  001378  D025               	goto	l3020
   968  00137A  D021               	goto	l3018
   969  00137C                     l3012:
   970                           
   971                           ;mcal_external_interrupt.c: 442: ret = INT0_SetInterruptHandler(int_obj->EXT_InterruptHa
      +                          ndler);
   972  00137C  C060  FFD9         	movff	Interrupt_INTx_SetInterruptHandler@int_obj,fsr2l
   973  001380  C061  FFDA         	movff	Interrupt_INTx_SetInterruptHandler@int_obj+1,fsr2h
   974  001384  CFDE F05D          	movff	postinc2,INT0_SetInterruptHandler@InterruptHandler
   975  001388  CFDD F05E          	movff	postdec2,INT0_SetInterruptHandler@InterruptHandler+1
   976  00138C  EC42  F00B         	call	_INT0_SetInterruptHandler	;wreg free
   977  001390  D017               	goto	L5
   978  001392                     l3014:
   979                           
   980                           ;mcal_external_interrupt.c: 446: ret = INT1_SetInterruptHandler(int_obj->EXT_InterruptHa
      +                          ndler);
   981  001392  C060  FFD9         	movff	Interrupt_INTx_SetInterruptHandler@int_obj,fsr2l
   982  001396  C061  FFDA         	movff	Interrupt_INTx_SetInterruptHandler@int_obj+1,fsr2h
   983  00139A  CFDE F05D          	movff	postinc2,INT1_SetInterruptHandler@InterruptHandler
   984  00139E  CFDD F05E          	movff	postdec2,INT1_SetInterruptHandler@InterruptHandler+1
   985  0013A2  EC32  F00B         	call	_INT1_SetInterruptHandler	;wreg free
   986  0013A6  D00C               	goto	L5
   987  0013A8                     l3016:
   988                           
   989                           ;mcal_external_interrupt.c: 450: ret = INT2_SetInterruptHandler(int_obj->EXT_InterruptHa
      +                          ndler);
   990  0013A8  C060  FFD9         	movff	Interrupt_INTx_SetInterruptHandler@int_obj,fsr2l
   991  0013AC  C061  FFDA         	movff	Interrupt_INTx_SetInterruptHandler@int_obj+1,fsr2h
   992  0013B0  CFDE F05D          	movff	postinc2,INT2_SetInterruptHandler@InterruptHandler
   993  0013B4  CFDD F05E          	movff	postdec2,INT2_SetInterruptHandler@InterruptHandler+1
   994  0013B8  EC22  F00B         	call	_INT2_SetInterruptHandler	;wreg free
   995  0013BC  D001               	goto	L5
   996  0013BE                     l3018:
   997  0013BE  0E00               	movlw	0
   998  0013C0                     L5:
   999  0013C0  6E62               	movwf	Interrupt_INTx_SetInterruptHandler@ret,c
  1000                           
  1001                           ;mcal_external_interrupt.c: 453: }
  1002  0013C2  D011               	goto	l3022
  1003  0013C4                     l3020:
  1004  0013C4  EE20 F005          	lfsr	2,5
  1005  0013C8  5060               	movf	Interrupt_INTx_SetInterruptHandler@int_obj,w,c
  1006  0013CA  26D9               	addwf	fsr2l,f,c
  1007  0013CC  5061               	movf	Interrupt_INTx_SetInterruptHandler@int_obj+1,w,c
  1008  0013CE  22DA               	addwfc	fsr2h,f,c
  1009  0013D0  50DF               	movf	indf2,w,c
  1010                           
  1011                           ; Switch size 1, requested type "space"
  1012                           ; Number of cases is 3, Range of values is 0 to 2
  1013                           ; switch strategies available:
  1014                           ; Name         Instructions Cycles
  1015                           ; simple_byte           10     6 (average)
  1016                           ;	Chosen strategy is simple_byte
  1017  0013D2  0A00               	xorlw	0	; case 0
  1018  0013D4  B4D8               	btfsc	status,2,c
  1019  0013D6  D7D2               	goto	l3012
  1020  0013D8  0A01               	xorlw	1	; case 1
  1021  0013DA  B4D8               	btfsc	status,2,c
  1022  0013DC  D7DA               	goto	l3014
  1023  0013DE  0A03               	xorlw	3	; case 2
  1024  0013E0  B4D8               	btfsc	status,2,c
  1025  0013E2  D7E2               	goto	l3016
  1026  0013E4  D7EC               	goto	l3018
  1027  0013E6                     l3022:
  1028                           
  1029                           ;mcal_external_interrupt.c: 454: }
  1030                           ;mcal_external_interrupt.c: 455: return ret;
  1031  0013E6  5062               	movf	Interrupt_INTx_SetInterruptHandler@ret,w,c
  1032  0013E8  0012               	return	
  1033  0013EA                     __end_of_Interrupt_INTx_SetInterruptHandler:
  1034                           	opt stack 0
  1035                           tblptru	equ	0xFF8
  1036                           tblptrh	equ	0xFF7
  1037                           tblptrl	equ	0xFF6
  1038                           tablat	equ	0xFF5
  1039                           prodh	equ	0xFF4
  1040                           prodl	equ	0xFF3
  1041                           postinc0	equ	0xFEE
  1042                           postdec1	equ	0xFE5
  1043                           fsr1l	equ	0xFE1
  1044                           indf2	equ	0xFDF
  1045                           postinc2	equ	0xFDE
  1046                           postdec2	equ	0xFDD
  1047                           fsr2h	equ	0xFDA
  1048                           fsr2l	equ	0xFD9
  1049                           status	equ	0xFD8
  1050                           
  1051 ;; *************** function _INT2_SetInterruptHandler *****************
  1052 ;; Defined at:
  1053 ;;		line 413 in file "MCAL_Layer/Interrupt_Driver/mcal_external_interrupt.c"
  1054 ;; Parameters:    Size  Location     Type
  1055 ;;  InterruptHan    2   22[COMRAM] PTR FTN()void 
  1056 ;;		 -> INT2_APP_ISR(1), INT1_APP_ISR(1), INT0_APP_ISR(1), 
  1057 ;; Auto vars:     Size  Location     Type
  1058 ;;  ret             1   24[COMRAM] unsigned char 
  1059 ;; Return value:  Size  Location     Type
  1060 ;;                  1    wreg      unsigned char 
  1061 ;; Registers used:
  1062 ;;		wreg, status,2, status,0
  1063 ;; Tracked objects:
  1064 ;;		On entry : 0/0
  1065 ;;		On exit  : 0/0
  1066 ;;		Unchanged: 0/0
  1067 ;; Data sizes:     COMRAM   BANK0   BANK1   BANK2   BANK3   BANK4   BANK5   BANK6   BANK7   BANK8   BANK9  BANK10  BANK1
      +1  BANK12  BANK13  BANK14  BANK15
  1068 ;;      Params:         2       0       0       0       0       0       0       0       0       0       0       0       
      +0       0       0       0       0
  1069 ;;      Locals:         1       0       0       0       0       0       0       0       0       0       0       0       
      +0       0       0       0       0
  1070 ;;      Temps:          0       0       0       0       0       0       0       0       0       0       0       0       
      +0       0       0       0       0
  1071 ;;      Totals:         3       0       0       0       0       0       0       0       0       0       0       0       
      +0       0       0       0       0
  1072 ;;Total ram usage:        3 bytes
  1073 ;; Hardware stack levels used:    1
  1074 ;; Hardware stack levels required when called:    4
  1075 ;; This function calls:
  1076 ;;		Nothing
  1077 ;; This function is called by:
  1078 ;;		_Interrupt_INTx_SetInterruptHandler
  1079 ;; This function uses a non-reentrant model
  1080 ;;
  1081                           
  1082                           	psect	text6
  1083  001644                     __ptext6:
  1084                           	opt stack 0
  1085  001644                     _INT2_SetInterruptHandler:
  1086                           	opt stack 24
  1087                           
  1088                           ;mcal_external_interrupt.c: 414: Std_ReturnType ret = (Std_ReturnType)0x00;
  1089                           
  1090                           ;incstack = 0
  1091  001644  0E00               	movlw	0
  1092  001646  6E5F               	movwf	INT2_SetInterruptHandler@ret,c
  1093                           
  1094                           ;mcal_external_interrupt.c: 415: if((0) == InterruptHandler){
  1095  001648  505D               	movf	INT2_SetInterruptHandler@InterruptHandler,w,c
  1096  00164A  105E               	iorwf	INT2_SetInterruptHandler@InterruptHandler+1,w,c
  1097  00164C  A4D8               	btfss	status,2,c
  1098  00164E  D002               	goto	l2892
  1099                           
  1100                           ;mcal_external_interrupt.c: 416: ret = (Std_ReturnType)0x00;
  1101  001650  0E00               	movlw	0
  1102  001652  D005               	goto	L6
  1103  001654                     l2892:
  1104                           
  1105                           ;mcal_external_interrupt.c: 418: else{
  1106                           ;mcal_external_interrupt.c: 420: INT2_InterruptHandler = InterruptHandler;
  1107  001654  C05D  F063         	movff	INT2_SetInterruptHandler@InterruptHandler,_INT2_InterruptHandler
  1108  001658  C05E  F064         	movff	INT2_SetInterruptHandler@InterruptHandler+1,_INT2_InterruptHandler+1
  1109                           
  1110                           ;mcal_external_interrupt.c: 421: ret = (Std_ReturnType)0x01;
  1111  00165C  0E01               	movlw	1
  1112  00165E                     L6:
  1113  00165E  6E5F               	movwf	INT2_SetInterruptHandler@ret,c
  1114                           
  1115                           ;mcal_external_interrupt.c: 422: }
  1116                           ;mcal_external_interrupt.c: 423: return ret;
  1117  001660  505F               	movf	INT2_SetInterruptHandler@ret,w,c
  1118  001662  0012               	return	
  1119  001664                     __end_of_INT2_SetInterruptHandler:
  1120                           	opt stack 0
  1121                           tblptru	equ	0xFF8
  1122                           tblptrh	equ	0xFF7
  1123                           tblptrl	equ	0xFF6
  1124                           tablat	equ	0xFF5
  1125                           prodh	equ	0xFF4
  1126                           prodl	equ	0xFF3
  1127                           postinc0	equ	0xFEE
  1128                           postdec1	equ	0xFE5
  1129                           fsr1l	equ	0xFE1
  1130                           indf2	equ	0xFDF
  1131                           postinc2	equ	0xFDE
  1132                           postdec2	equ	0xFDD
  1133                           fsr2h	equ	0xFDA
  1134                           fsr2l	equ	0xFD9
  1135                           status	equ	0xFD8
  1136                           
  1137 ;; *************** function _INT1_SetInterruptHandler *****************
  1138 ;; Defined at:
  1139 ;;		line 393 in file "MCAL_Layer/Interrupt_Driver/mcal_external_interrupt.c"
  1140 ;; Parameters:    Size  Location     Type
  1141 ;;  InterruptHan    2   22[COMRAM] PTR FTN()void 
  1142 ;;		 -> INT2_APP_ISR(1), INT1_APP_ISR(1), INT0_APP_ISR(1), 
  1143 ;; Auto vars:     Size  Location     Type
  1144 ;;  ret             1   24[COMRAM] unsigned char 
  1145 ;; Return value:  Size  Location     Type
  1146 ;;                  1    wreg      unsigned char 
  1147 ;; Registers used:
  1148 ;;		wreg, status,2, status,0
  1149 ;; Tracked objects:
  1150 ;;		On entry : 0/0
  1151 ;;		On exit  : 0/0
  1152 ;;		Unchanged: 0/0
  1153 ;; Data sizes:     COMRAM   BANK0   BANK1   BANK2   BANK3   BANK4   BANK5   BANK6   BANK7   BANK8   BANK9  BANK10  BANK1
      +1  BANK12  BANK13  BANK14  BANK15
  1154 ;;      Params:         2       0       0       0       0       0       0       0       0       0       0       0       
      +0       0       0       0       0
  1155 ;;      Locals:         1       0       0       0       0       0       0       0       0       0       0       0       
      +0       0       0       0       0
  1156 ;;      Temps:          0       0       0       0       0       0       0       0       0       0       0       0       
      +0       0       0       0       0
  1157 ;;      Totals:         3       0       0       0       0       0       0       0       0       0       0       0       
      +0       0       0       0       0
  1158 ;;Total ram usage:        3 bytes
  1159 ;; Hardware stack levels used:    1
  1160 ;; Hardware stack levels required when called:    4
  1161 ;; This function calls:
  1162 ;;		Nothing
  1163 ;; This function is called by:
  1164 ;;		_Interrupt_INTx_SetInterruptHandler
  1165 ;; This function uses a non-reentrant model
  1166 ;;
  1167                           
  1168                           	psect	text7
  1169  001664                     __ptext7:
  1170                           	opt stack 0
  1171  001664                     _INT1_SetInterruptHandler:
  1172                           	opt stack 24
  1173                           
  1174                           ;mcal_external_interrupt.c: 394: Std_ReturnType ret = (Std_ReturnType)0x00;
  1175                           
  1176                           ;incstack = 0
  1177  001664  0E00               	movlw	0
  1178  001666  6E5F               	movwf	INT1_SetInterruptHandler@ret,c
  1179                           
  1180                           ;mcal_external_interrupt.c: 395: if((0) == InterruptHandler){
  1181  001668  505D               	movf	INT1_SetInterruptHandler@InterruptHandler,w,c
  1182  00166A  105E               	iorwf	INT1_SetInterruptHandler@InterruptHandler+1,w,c
  1183  00166C  A4D8               	btfss	status,2,c
  1184  00166E  D002               	goto	l2878
  1185                           
  1186                           ;mcal_external_interrupt.c: 396: ret = (Std_ReturnType)0x00;
  1187  001670  0E00               	movlw	0
  1188  001672  D005               	goto	L7
  1189  001674                     l2878:
  1190                           
  1191                           ;mcal_external_interrupt.c: 398: else{
  1192                           ;mcal_external_interrupt.c: 400: INT1_InterruptHandler = InterruptHandler;
  1193  001674  C05D  F065         	movff	INT1_SetInterruptHandler@InterruptHandler,_INT1_InterruptHandler
  1194  001678  C05E  F066         	movff	INT1_SetInterruptHandler@InterruptHandler+1,_INT1_InterruptHandler+1
  1195                           
  1196                           ;mcal_external_interrupt.c: 401: ret = (Std_ReturnType)0x01;
  1197  00167C  0E01               	movlw	1
  1198  00167E                     L7:
  1199  00167E  6E5F               	movwf	INT1_SetInterruptHandler@ret,c
  1200                           
  1201                           ;mcal_external_interrupt.c: 402: }
  1202                           ;mcal_external_interrupt.c: 403: return ret;
  1203  001680  505F               	movf	INT1_SetInterruptHandler@ret,w,c
  1204  001682  0012               	return	
  1205  001684                     __end_of_INT1_SetInterruptHandler:
  1206                           	opt stack 0
  1207                           tblptru	equ	0xFF8
  1208                           tblptrh	equ	0xFF7
  1209                           tblptrl	equ	0xFF6
  1210                           tablat	equ	0xFF5
  1211                           prodh	equ	0xFF4
  1212                           prodl	equ	0xFF3
  1213                           postinc0	equ	0xFEE
  1214                           postdec1	equ	0xFE5
  1215                           fsr1l	equ	0xFE1
  1216                           indf2	equ	0xFDF
  1217                           postinc2	equ	0xFDE
  1218                           postdec2	equ	0xFDD
  1219                           fsr2h	equ	0xFDA
  1220                           fsr2l	equ	0xFD9
  1221                           status	equ	0xFD8
  1222                           
  1223 ;; *************** function _INT0_SetInterruptHandler *****************
  1224 ;; Defined at:
  1225 ;;		line 373 in file "MCAL_Layer/Interrupt_Driver/mcal_external_interrupt.c"
  1226 ;; Parameters:    Size  Location     Type
  1227 ;;  InterruptHan    2   22[COMRAM] PTR FTN()void 
  1228 ;;		 -> INT2_APP_ISR(1), INT1_APP_ISR(1), INT0_APP_ISR(1), 
  1229 ;; Auto vars:     Size  Location     Type
  1230 ;;  ret             1   24[COMRAM] unsigned char 
  1231 ;; Return value:  Size  Location     Type
  1232 ;;                  1    wreg      unsigned char 
  1233 ;; Registers used:
  1234 ;;		wreg, status,2, status,0
  1235 ;; Tracked objects:
  1236 ;;		On entry : 0/0
  1237 ;;		On exit  : 0/0
  1238 ;;		Unchanged: 0/0
  1239 ;; Data sizes:     COMRAM   BANK0   BANK1   BANK2   BANK3   BANK4   BANK5   BANK6   BANK7   BANK8   BANK9  BANK10  BANK1
      +1  BANK12  BANK13  BANK14  BANK15
  1240 ;;      Params:         2       0       0       0       0       0       0       0       0       0       0       0       
      +0       0       0       0       0
  1241 ;;      Locals:         1       0       0       0       0       0       0       0       0       0       0       0       
      +0       0       0       0       0
  1242 ;;      Temps:          0       0       0       0       0       0       0       0       0       0       0       0       
      +0       0       0       0       0
  1243 ;;      Totals:         3       0       0       0       0       0       0       0       0       0       0       0       
      +0       0       0       0       0
  1244 ;;Total ram usage:        3 bytes
  1245 ;; Hardware stack levels used:    1
  1246 ;; Hardware stack levels required when called:    4
  1247 ;; This function calls:
  1248 ;;		Nothing
  1249 ;; This function is called by:
  1250 ;;		_Interrupt_INTx_SetInterruptHandler
  1251 ;; This function uses a non-reentrant model
  1252 ;;
  1253                           
  1254                           	psect	text8
  1255  001684                     __ptext8:
  1256                           	opt stack 0
  1257  001684                     _INT0_SetInterruptHandler:
  1258                           	opt stack 24
  1259                           
  1260                           ;mcal_external_interrupt.c: 374: Std_ReturnType ret = (Std_ReturnType)0x00;
  1261                           
  1262                           ;incstack = 0
  1263  001684  0E00               	movlw	0
  1264  001686  6E5F               	movwf	INT0_SetInterruptHandler@ret,c
  1265                           
  1266                           ;mcal_external_interrupt.c: 375: if((0) == InterruptHandler){
  1267  001688  505D               	movf	INT0_SetInterruptHandler@InterruptHandler,w,c
  1268  00168A  105E               	iorwf	INT0_SetInterruptHandler@InterruptHandler+1,w,c
  1269  00168C  A4D8               	btfss	status,2,c
  1270  00168E  D002               	goto	l2864
  1271                           
  1272                           ;mcal_external_interrupt.c: 376: ret = (Std_ReturnType)0x00;
  1273  001690  0E00               	movlw	0
  1274  001692  D005               	goto	L8
  1275  001694                     l2864:
  1276                           
  1277                           ;mcal_external_interrupt.c: 378: else{
  1278                           ;mcal_external_interrupt.c: 380: INT0_InterruptHandler = InterruptHandler;
  1279  001694  C05D  F067         	movff	INT0_SetInterruptHandler@InterruptHandler,_INT0_InterruptHandler
  1280  001698  C05E  F068         	movff	INT0_SetInterruptHandler@InterruptHandler+1,_INT0_InterruptHandler+1
  1281                           
  1282                           ;mcal_external_interrupt.c: 381: ret = (Std_ReturnType)0x01;
  1283  00169C  0E01               	movlw	1
  1284  00169E                     L8:
  1285  00169E  6E5F               	movwf	INT0_SetInterruptHandler@ret,c
  1286                           
  1287                           ;mcal_external_interrupt.c: 382: }
  1288                           ;mcal_external_interrupt.c: 383: return ret;
  1289  0016A0  505F               	movf	INT0_SetInterruptHandler@ret,w,c
  1290  0016A2  0012               	return	
  1291  0016A4                     __end_of_INT0_SetInterruptHandler:
  1292                           	opt stack 0
  1293                           tblptru	equ	0xFF8
  1294                           tblptrh	equ	0xFF7
  1295                           tblptrl	equ	0xFF6
  1296                           tablat	equ	0xFF5
  1297                           prodh	equ	0xFF4
  1298                           prodl	equ	0xFF3
  1299                           postinc0	equ	0xFEE
  1300                           postdec1	equ	0xFE5
  1301                           fsr1l	equ	0xFE1
  1302                           indf2	equ	0xFDF
  1303                           postinc2	equ	0xFDE
  1304                           postdec2	equ	0xFDD
  1305                           fsr2h	equ	0xFDA
  1306                           fsr2l	equ	0xFD9
  1307                           status	equ	0xFD8
  1308                           
  1309 ;; *************** function _Interrupt_INTx_Pin_Init *****************
  1310 ;; Defined at:
  1311 ;;		line 322 in file "MCAL_Layer/Interrupt_Driver/mcal_external_interrupt.c"
  1312 ;; Parameters:    Size  Location     Type
  1313 ;;  int_obj         2   25[COMRAM] PTR const struct .
  1314 ;;		 -> INT2_obj(7), INT1_obj(7), INT0_obj(7), 
  1315 ;; Auto vars:     Size  Location     Type
  1316 ;;  ret             1   27[COMRAM] unsigned char 
  1317 ;; Return value:  Size  Location     Type
  1318 ;;                  1    wreg      unsigned char 
  1319 ;; Registers used:
  1320 ;;		wreg, fsr2l, fsr2h, status,2, status,0, prodl, prodh, cstack
  1321 ;; Tracked objects:
  1322 ;;		On entry : 0/0
  1323 ;;		On exit  : 0/0
  1324 ;;		Unchanged: 0/0
  1325 ;; Data sizes:     COMRAM   BANK0   BANK1   BANK2   BANK3   BANK4   BANK5   BANK6   BANK7   BANK8   BANK9  BANK10  BANK1
      +1  BANK12  BANK13  BANK14  BANK15
  1326 ;;      Params:         2       0       0       0       0       0       0       0       0       0       0       0       
      +0       0       0       0       0
  1327 ;;      Locals:         1       0       0       0       0       0       0       0       0       0       0       0       
      +0       0       0       0       0
  1328 ;;      Temps:          0       0       0       0       0       0       0       0       0       0       0       0       
      +0       0       0       0       0
  1329 ;;      Totals:         3       0       0       0       0       0       0       0       0       0       0       0       
      +0       0       0       0       0
  1330 ;;Total ram usage:        3 bytes
  1331 ;; Hardware stack levels used:    1
  1332 ;; Hardware stack levels required when called:    5
  1333 ;; This function calls:
  1334 ;;		_gpio_pin_direction_intialize
  1335 ;; This function is called by:
  1336 ;;		_Interrupt_INTx_Init
  1337 ;; This function uses a non-reentrant model
  1338 ;;
  1339                           
  1340                           	psect	text9
  1341  00161E                     __ptext9:
  1342                           	opt stack 0
  1343  00161E                     _Interrupt_INTx_Pin_Init:
  1344                           	opt stack 24
  1345                           
  1346                           ;mcal_external_interrupt.c: 323: Std_ReturnType ret = (Std_ReturnType)0x00;
  1347                           
  1348                           ;incstack = 0
  1349  00161E  0E00               	movlw	0
  1350  001620  6E62               	movwf	Interrupt_INTx_Pin_Init@ret,c
  1351                           
  1352                           ;mcal_external_interrupt.c: 324: if((0) == int_obj){
  1353  001622  5060               	movf	Interrupt_INTx_Pin_Init@int_obj,w,c
  1354  001624  1061               	iorwf	Interrupt_INTx_Pin_Init@int_obj+1,w,c
  1355  001626  A4D8               	btfss	status,2,c
  1356  001628  D002               	goto	l3000
  1357                           
  1358                           ;mcal_external_interrupt.c: 325: ret = (Std_ReturnType)0x00;
  1359  00162A  0E00               	movlw	0
  1360  00162C  D008               	goto	L9
  1361  00162E                     l3000:
  1362                           
  1363                           ;mcal_external_interrupt.c: 327: else{
  1364                           ;mcal_external_interrupt.c: 329: ret = gpio_pin_direction_intialize(&(int_obj->mcu_pin))
      +                          ;
  1365  00162E  0E02               	movlw	2
  1366  001630  2460               	addwf	Interrupt_INTx_Pin_Init@int_obj,w,c
  1367  001632  6E5D               	movwf	gpio_pin_direction_intialize@_pin_config,c
  1368  001634  0E00               	movlw	0
  1369  001636  2061               	addwfc	Interrupt_INTx_Pin_Init@int_obj+1,w,c
  1370  001638  6E5E               	movwf	gpio_pin_direction_intialize@_pin_config+1,c
  1371  00163A  EC09  F008         	call	_gpio_pin_direction_intialize	;wreg free
  1372  00163E                     L9:
  1373  00163E  6E62               	movwf	Interrupt_INTx_Pin_Init@ret,c
  1374                           
  1375                           ;mcal_external_interrupt.c: 330: }
  1376                           ;mcal_external_interrupt.c: 331: return ret;
  1377  001640  5062               	movf	Interrupt_INTx_Pin_Init@ret,w,c
  1378  001642  0012               	return	
  1379  001644                     __end_of_Interrupt_INTx_Pin_Init:
  1380                           	opt stack 0
  1381                           tblptru	equ	0xFF8
  1382                           tblptrh	equ	0xFF7
  1383                           tblptrl	equ	0xFF6
  1384                           tablat	equ	0xFF5
  1385                           prodh	equ	0xFF4
  1386                           prodl	equ	0xFF3
  1387                           postinc0	equ	0xFEE
  1388                           postdec1	equ	0xFE5
  1389                           fsr1l	equ	0xFE1
  1390                           indf2	equ	0xFDF
  1391                           postinc2	equ	0xFDE
  1392                           postdec2	equ	0xFDD
  1393                           fsr2h	equ	0xFDA
  1394                           fsr2l	equ	0xFD9
  1395                           status	equ	0xFD8
  1396                           
  1397 ;; *************** function _gpio_pin_direction_intialize *****************
  1398 ;; Defined at:
  1399 ;;		line 16 in file "MCAL_Layer/GPIO/hal_gpio.c"
  1400 ;; Parameters:    Size  Location     Type
  1401 ;;  _pin_config     2   22[COMRAM] PTR const struct .
  1402 ;;		 -> INT2_obj(7), INT1_obj(7), INT0_obj(7), 
  1403 ;; Auto vars:     Size  Location     Type
  1404 ;;  LocalReturn     1   24[COMRAM] unsigned char 
  1405 ;; Return value:  Size  Location     Type
  1406 ;;                  1    wreg      unsigned char 
  1407 ;; Registers used:
  1408 ;;		wreg, fsr2l, fsr2h, status,2, status,0, prodl, prodh
  1409 ;; Tracked objects:
  1410 ;;		On entry : 0/0
  1411 ;;		On exit  : 0/0
  1412 ;;		Unchanged: 0/0
  1413 ;; Data sizes:     COMRAM   BANK0   BANK1   BANK2   BANK3   BANK4   BANK5   BANK6   BANK7   BANK8   BANK9  BANK10  BANK1
      +1  BANK12  BANK13  BANK14  BANK15
  1414 ;;      Params:         2       0       0       0       0       0       0       0       0       0       0       0       
      +0       0       0       0       0
  1415 ;;      Locals:         1       0       0       0       0       0       0       0       0       0       0       0       
      +0       0       0       0       0
  1416 ;;      Temps:          0       6       0       0       0       0       0       0       0       0       0       0       
      +0       0       0       0       0
  1417 ;;      Totals:         3       6       0       0       0       0       0       0       0       0       0       0       
      +0       0       0       0       0
  1418 ;;Total ram usage:        9 bytes
  1419 ;; Hardware stack levels used:    1
  1420 ;; Hardware stack levels required when called:    4
  1421 ;; This function calls:
  1422 ;;		Nothing
  1423 ;; This function is called by:
  1424 ;;		_Interrupt_INTx_Pin_Init
  1425 ;;		_seven_segment_initialize
  1426 ;;		_button_initialize
  1427 ;;		_motor_initialize
  1428 ;;		_gpio_pin_intialize
  1429 ;; This function uses a non-reentrant model
  1430 ;;
  1431                           
  1432                           	psect	text10
  1433  001012                     __ptext10:
  1434                           	opt stack 0
  1435  001012                     _gpio_pin_direction_intialize:
  1436                           	opt stack 24
  1437                           
  1438                           ;hal_gpio.c: 17: Std_ReturnType LocalReturn=(Std_ReturnType)0x00;
  1439                           
  1440                           ;incstack = 0
  1441  001012  0E00               	movlw	0
  1442  001014  6E5F               	movwf	gpio_pin_direction_intialize@LocalReturn,c
  1443                           
  1444                           ;hal_gpio.c: 18: if(_pin_config==(0)){
  1445  001016  505D               	movf	gpio_pin_direction_intialize@_pin_config,w,c
  1446  001018  105E               	iorwf	gpio_pin_direction_intialize@_pin_config+1,w,c
  1447  00101A  A4D8               	btfss	status,2,c
  1448  00101C  D06C               	goto	l2838
  1449                           
  1450                           ;hal_gpio.c: 19: LocalReturn=(Std_ReturnType)0x00;
  1451  00101E  0E00               	movlw	0
  1452  001020  D031               	goto	L10
  1453  001022                     l2828:
  1454                           
  1455                           ;hal_gpio.c: 23: (*tris_register[_pin_config->port] |= ((uint8)1 << _pin_config->pin));
  1456  001022  C05D  FFD9         	movff	gpio_pin_direction_intialize@_pin_config,fsr2l
  1457  001026  C05E  FFDA         	movff	gpio_pin_direction_intialize@_pin_config+1,fsr2h
  1458  00102A  38DF               	swapf	indf2,w,c
  1459  00102C  0B07               	andlw	7
  1460  00102E  0100               	movlb	0	; () banked
  1461  001030  6F80               	movwf	??_gpio_pin_direction_intialize& (0+255),b
  1462  001032  0E01               	movlw	1
  1463  001034  0100               	movlb	0	; () banked
  1464  001036  6F81               	movwf	(??_gpio_pin_direction_intialize+1)& (0+255),b
  1465  001038  0100               	movlb	0	; () banked
  1466  00103A  2B80               	incf	??_gpio_pin_direction_intialize& (0+255),f,b
  1467  00103C  D003               	goto	u1754
  1468  00103E                     u1755:
  1469  00103E  0100               	movlb	0	; () banked
  1470  001040  90D8               	bcf	status,0,c
  1471  001042  3781               	rlcf	(??_gpio_pin_direction_intialize+1)& (0+255),f,b
  1472  001044                     u1754:
  1473  001044  0100               	movlb	0	; () banked
  1474  001046  2F80               	decfsz	??_gpio_pin_direction_intialize& (0+255),f,b
  1475  001048  D7FA               	goto	u1755
  1476  00104A  C05D  FFD9         	movff	gpio_pin_direction_intialize@_pin_config,fsr2l
  1477  00104E  C05E  FFDA         	movff	gpio_pin_direction_intialize@_pin_config+1,fsr2h
  1478  001052  50DF               	movf	indf2,w,c
  1479  001054  0B0F               	andlw	15
  1480  001056  0100               	movlb	0	; () banked
  1481  001058  6F82               	movwf	(??_gpio_pin_direction_intialize+2)& (0+255),b
  1482  00105A  0100               	movlb	0	; () banked
  1483  00105C  5182               	movf	(??_gpio_pin_direction_intialize+2)& (0+255),w,b
  1484  00105E  0D02               	mullw	2
  1485  001060  0E25               	movlw	low _tris_register
  1486  001062  24F3               	addwf	prodl,w,c
  1487  001064  6ED9               	movwf	fsr2l,c
  1488  001066  0E00               	movlw	high _tris_register
  1489  001068  20F4               	addwfc	prodh,w,c
  1490  00106A  6EDA               	movwf	fsr2h,c
  1491  00106C  CFDE F083          	movff	postinc2,??_gpio_pin_direction_intialize+3
  1492  001070  CFDD F084          	movff	postdec2,??_gpio_pin_direction_intialize+4
  1493  001074  C083  FFD9         	movff	??_gpio_pin_direction_intialize+3,fsr2l
  1494  001078  C084  FFDA         	movff	??_gpio_pin_direction_intialize+4,fsr2h
  1495  00107C  0100               	movlb	0	; () banked
  1496  00107E  5181               	movf	(??_gpio_pin_direction_intialize+1)& (0+255),w,b
  1497  001080  12DF               	iorwf	indf2,f,c
  1498  001082  D037               	goto	l2834
  1499  001084                     L10:
  1500  001084  6E5F               	movwf	gpio_pin_direction_intialize@LocalReturn,c
  1501                           
  1502                           ;hal_gpio.c: 25: break;
  1503  001086  D046               	goto	l2840
  1504  001088                     l2832:
  1505                           
  1506                           ;hal_gpio.c: 27: (*tris_register[_pin_config->port] &= ~((uint8)1 << _pin_config->pin));
  1507  001088  C05D  FFD9         	movff	gpio_pin_direction_intialize@_pin_config,fsr2l
  1508  00108C  C05E  FFDA         	movff	gpio_pin_direction_intialize@_pin_config+1,fsr2h
  1509  001090  38DF               	swapf	indf2,w,c
  1510  001092  0B07               	andlw	7
  1511  001094  0100               	movlb	0	; () banked
  1512  001096  6F80               	movwf	??_gpio_pin_direction_intialize& (0+255),b
  1513  001098  0E01               	movlw	1
  1514  00109A  0100               	movlb	0	; () banked
  1515  00109C  6F81               	movwf	(??_gpio_pin_direction_intialize+1)& (0+255),b
  1516  00109E  0100               	movlb	0	; () banked
  1517  0010A0  2B80               	incf	??_gpio_pin_direction_intialize& (0+255),f,b
  1518  0010A2  D003               	goto	u1764
  1519  0010A4                     u1765:
  1520  0010A4  0100               	movlb	0	; () banked
  1521  0010A6  90D8               	bcf	status,0,c
  1522  0010A8  3781               	rlcf	(??_gpio_pin_direction_intialize+1)& (0+255),f,b
  1523  0010AA                     u1764:
  1524  0010AA  0100               	movlb	0	; () banked
  1525  0010AC  2F80               	decfsz	??_gpio_pin_direction_intialize& (0+255),f,b
  1526  0010AE  D7FA               	goto	u1765
  1527  0010B0  0100               	movlb	0	; () banked
  1528  0010B2  5181               	movf	(??_gpio_pin_direction_intialize+1)& (0+255),w,b
  1529  0010B4  0AFF               	xorlw	255
  1530  0010B6  0100               	movlb	0	; () banked
  1531  0010B8  6F82               	movwf	(??_gpio_pin_direction_intialize+2)& (0+255),b
  1532  0010BA  C05D  FFD9         	movff	gpio_pin_direction_intialize@_pin_config,fsr2l
  1533  0010BE  C05E  FFDA         	movff	gpio_pin_direction_intialize@_pin_config+1,fsr2h
  1534  0010C2  50DF               	movf	indf2,w,c
  1535  0010C4  0B0F               	andlw	15
  1536  0010C6  0100               	movlb	0	; () banked
  1537  0010C8  6F83               	movwf	(??_gpio_pin_direction_intialize+3)& (0+255),b
  1538  0010CA  0100               	movlb	0	; () banked
  1539  0010CC  5183               	movf	(??_gpio_pin_direction_intialize+3)& (0+255),w,b
  1540  0010CE  0D02               	mullw	2
  1541  0010D0  0E25               	movlw	low _tris_register
  1542  0010D2  24F3               	addwf	prodl,w,c
  1543  0010D4  6ED9               	movwf	fsr2l,c
  1544  0010D6  0E00               	movlw	high _tris_register
  1545  0010D8  20F4               	addwfc	prodh,w,c
  1546  0010DA  6EDA               	movwf	fsr2h,c
  1547  0010DC  CFDE F084          	movff	postinc2,??_gpio_pin_direction_intialize+4
  1548  0010E0  CFDD F085          	movff	postdec2,??_gpio_pin_direction_intialize+5
  1549  0010E4  C084  FFD9         	movff	??_gpio_pin_direction_intialize+4,fsr2l
  1550  0010E8  C085  FFDA         	movff	??_gpio_pin_direction_intialize+5,fsr2h
  1551  0010EC  0100               	movlb	0	; () banked
  1552  0010EE  5182               	movf	(??_gpio_pin_direction_intialize+2)& (0+255),w,b
  1553  0010F0  16DF               	andwf	indf2,f,c
  1554  0010F2                     l2834:
  1555                           
  1556                           ; BSR set to: 0
  1557                           ;hal_gpio.c: 28: LocalReturn=(Std_ReturnType)0x01;
  1558  0010F2  0E01               	movlw	1
  1559  0010F4  D7C7               	goto	L10
  1560  0010F6                     l2838:
  1561  0010F6  C05D  FFD9         	movff	gpio_pin_direction_intialize@_pin_config,fsr2l
  1562  0010FA  C05E  FFDA         	movff	gpio_pin_direction_intialize@_pin_config+1,fsr2h
  1563  0010FE  AEDF               	btfss	indf2,7,c
  1564  001100  D002               	goto	u1770
  1565  001102  0E01               	movlw	1
  1566  001104  D001               	goto	u1776
  1567  001106                     u1770:
  1568  001106  0E00               	movlw	0
  1569  001108                     u1776:
  1570                           
  1571                           ; Switch size 1, requested type "space"
  1572                           ; Number of cases is 2, Range of values is 0 to 1
  1573                           ; switch strategies available:
  1574                           ; Name         Instructions Cycles
  1575                           ; simple_byte            7     4 (average)
  1576                           ;	Chosen strategy is simple_byte
  1577  001108  0A00               	xorlw	0	; case 0
  1578  00110A  B4D8               	btfsc	status,2,c
  1579  00110C  D7BD               	goto	l2832
  1580  00110E  0A01               	xorlw	1	; case 1
  1581  001110  B4D8               	btfsc	status,2,c
  1582  001112  D787               	goto	l2828
  1583  001114                     l2840:
  1584                           
  1585                           ;hal_gpio.c: 31: }
  1586                           ;hal_gpio.c: 32: return LocalReturn;
  1587  001114  505F               	movf	gpio_pin_direction_intialize@LocalReturn,w,c
  1588  001116  0012               	return	
  1589  001118                     __end_of_gpio_pin_direction_intialize:
  1590                           	opt stack 0
  1591                           tblptru	equ	0xFF8
  1592                           tblptrh	equ	0xFF7
  1593                           tblptrl	equ	0xFF6
  1594                           tablat	equ	0xFF5
  1595                           prodh	equ	0xFF4
  1596                           prodl	equ	0xFF3
  1597                           postinc0	equ	0xFEE
  1598                           postdec1	equ	0xFE5
  1599                           fsr1l	equ	0xFE1
  1600                           indf2	equ	0xFDF
  1601                           postinc2	equ	0xFDE
  1602                           postdec2	equ	0xFDD
  1603                           fsr2h	equ	0xFDA
  1604                           fsr2l	equ	0xFD9
  1605                           status	equ	0xFD8
  1606                           
  1607 ;; *************** function _Interrupt_INTx_Enable *****************
  1608 ;; Defined at:
  1609 ;;		line 154 in file "MCAL_Layer/Interrupt_Driver/mcal_external_interrupt.c"
  1610 ;; Parameters:    Size  Location     Type
  1611 ;;  int_obj         2   22[COMRAM] PTR const struct .
  1612 ;;		 -> INT2_obj(7), INT1_obj(7), INT0_obj(7), 
  1613 ;; Auto vars:     Size  Location     Type
  1614 ;;  ret             1   24[COMRAM] unsigned char 
  1615 ;; Return value:  Size  Location     Type
  1616 ;;                  1    wreg      unsigned char 
  1617 ;; Registers used:
  1618 ;;		wreg, fsr2l, fsr2h, status,2, status,0
  1619 ;; Tracked objects:
  1620 ;;		On entry : 0/0
  1621 ;;		On exit  : 0/0
  1622 ;;		Unchanged: 0/0
  1623 ;; Data sizes:     COMRAM   BANK0   BANK1   BANK2   BANK3   BANK4   BANK5   BANK6   BANK7   BANK8   BANK9  BANK10  BANK1
      +1  BANK12  BANK13  BANK14  BANK15
  1624 ;;      Params:         2       0       0       0       0       0       0       0       0       0       0       0       
      +0       0       0       0       0
  1625 ;;      Locals:         1       0       0       0       0       0       0       0       0       0       0       0       
      +0       0       0       0       0
  1626 ;;      Temps:          0       0       0       0       0       0       0       0       0       0       0       0       
      +0       0       0       0       0
  1627 ;;      Totals:         3       0       0       0       0       0       0       0       0       0       0       0       
      +0       0       0       0       0
  1628 ;;Total ram usage:        3 bytes
  1629 ;; Hardware stack levels used:    1
  1630 ;; Hardware stack levels required when called:    4
  1631 ;; This function calls:
  1632 ;;		Nothing
  1633 ;; This function is called by:
  1634 ;;		_Interrupt_INTx_Init
  1635 ;; This function uses a non-reentrant model
  1636 ;;
  1637                           
  1638                           	psect	text11
  1639  001452                     __ptext11:
  1640                           	opt stack 0
  1641  001452                     _Interrupt_INTx_Enable:
  1642                           	opt stack 25
  1643                           
  1644                           ;mcal_external_interrupt.c: 155: Std_ReturnType ret = (Std_ReturnType)0x00;
  1645                           
  1646                           ;incstack = 0
  1647  001452  0E00               	movlw	0
  1648  001454  6E5F               	movwf	Interrupt_INTx_Enable@ret,c
  1649                           
  1650                           ;mcal_external_interrupt.c: 156: if((0) == int_obj){
  1651  001456  505D               	movf	Interrupt_INTx_Enable@int_obj,w,c
  1652  001458  105E               	iorwf	Interrupt_INTx_Enable@int_obj+1,w,c
  1653  00145A  A4D8               	btfss	status,2,c
  1654  00145C  D012               	goto	l3040
  1655  00145E  D00F               	goto	l3038
  1656  001460                     l782:
  1657                           
  1658                           ;mcal_external_interrupt.c: 165: (INTCONbits.GIE = 1);
  1659  001460  8EF2               	bsf	intcon,7,c	;volatile
  1660                           
  1661                           ;mcal_external_interrupt.c: 166: (INTCONbits.PEIE = 1);
  1662  001462  8CF2               	bsf	intcon,6,c	;volatile
  1663                           
  1664                           ;mcal_external_interrupt.c: 168: (INTCONbits.INT0IE = 1);
  1665  001464  88F2               	bsf	intcon,4,c	;volatile
  1666  001466  D009               	goto	l3036
  1667  001468                     L11:
  1668  001468  6E5F               	movwf	Interrupt_INTx_Enable@ret,c
  1669                           
  1670                           ;mcal_external_interrupt.c: 170: break;
  1671  00146A  D01C               	goto	l3042
  1672  00146C                     l784:
  1673                           
  1674                           ;mcal_external_interrupt.c: 182: (INTCONbits.GIE = 1);
  1675  00146C  8EF2               	bsf	intcon,7,c	;volatile
  1676                           
  1677                           ;mcal_external_interrupt.c: 183: (INTCONbits.PEIE = 1);
  1678  00146E  8CF2               	bsf	intcon,6,c	;volatile
  1679                           
  1680                           ;mcal_external_interrupt.c: 185: (INTCON3bits.INT1IE = 1);
  1681  001470  86F0               	bsf	intcon3,3,c	;volatile
  1682  001472  D003               	goto	l3036
  1683  001474                     l785:
  1684                           
  1685                           ;mcal_external_interrupt.c: 199: (INTCONbits.GIE = 1);
  1686  001474  8EF2               	bsf	intcon,7,c	;volatile
  1687                           
  1688                           ;mcal_external_interrupt.c: 200: (INTCONbits.PEIE = 1);
  1689  001476  8CF2               	bsf	intcon,6,c	;volatile
  1690                           
  1691                           ;mcal_external_interrupt.c: 202: (INTCON3bits.INT2IE = 1);
  1692  001478  88F0               	bsf	intcon3,4,c	;volatile
  1693  00147A                     l3036:
  1694                           
  1695                           ;mcal_external_interrupt.c: 203: ret = (Std_ReturnType)0x01;
  1696  00147A  0E01               	movlw	1
  1697  00147C  D7F5               	goto	L11
  1698  00147E                     l3038:
  1699  00147E  0E00               	movlw	0
  1700  001480  D7F3               	goto	L11
  1701  001482                     l3040:
  1702  001482  EE20 F005          	lfsr	2,5
  1703  001486  505D               	movf	Interrupt_INTx_Enable@int_obj,w,c
  1704  001488  26D9               	addwf	fsr2l,f,c
  1705  00148A  505E               	movf	Interrupt_INTx_Enable@int_obj+1,w,c
  1706  00148C  22DA               	addwfc	fsr2h,f,c
  1707  00148E  50DF               	movf	indf2,w,c
  1708                           
  1709                           ; Switch size 1, requested type "space"
  1710                           ; Number of cases is 3, Range of values is 0 to 2
  1711                           ; switch strategies available:
  1712                           ; Name         Instructions Cycles
  1713                           ; simple_byte           10     6 (average)
  1714                           ;	Chosen strategy is simple_byte
  1715  001490  0A00               	xorlw	0	; case 0
  1716  001492  B4D8               	btfsc	status,2,c
  1717  001494  D7E5               	goto	l782
  1718  001496  0A01               	xorlw	1	; case 1
  1719  001498  B4D8               	btfsc	status,2,c
  1720  00149A  D7E8               	goto	l784
  1721  00149C  0A03               	xorlw	3	; case 2
  1722  00149E  B4D8               	btfsc	status,2,c
  1723  0014A0  D7E9               	goto	l785
  1724  0014A2  D7ED               	goto	l3038
  1725  0014A4                     l3042:
  1726                           
  1727                           ;mcal_external_interrupt.c: 207: }
  1728                           ;mcal_external_interrupt.c: 208: return ret;
  1729  0014A4  505F               	movf	Interrupt_INTx_Enable@ret,w,c
  1730  0014A6  0012               	return	
  1731  0014A8                     __end_of_Interrupt_INTx_Enable:
  1732                           	opt stack 0
  1733                           tblptru	equ	0xFF8
  1734                           tblptrh	equ	0xFF7
  1735                           tblptrl	equ	0xFF6
  1736                           tablat	equ	0xFF5
  1737                           prodh	equ	0xFF4
  1738                           prodl	equ	0xFF3
  1739                           intcon	equ	0xFF2
  1740                           intcon3	equ	0xFF0
  1741                           postinc0	equ	0xFEE
  1742                           postdec1	equ	0xFE5
  1743                           fsr1l	equ	0xFE1
  1744                           indf2	equ	0xFDF
  1745                           postinc2	equ	0xFDE
  1746                           postdec2	equ	0xFDD
  1747                           fsr2h	equ	0xFDA
  1748                           fsr2l	equ	0xFD9
  1749                           status	equ	0xFD8
  1750                           
  1751 ;; *************** function _Interrupt_INTx_Edge_Init *****************
  1752 ;; Defined at:
  1753 ;;		line 284 in file "MCAL_Layer/Interrupt_Driver/mcal_external_interrupt.c"
  1754 ;; Parameters:    Size  Location     Type
  1755 ;;  int_obj         2   22[COMRAM] PTR const struct .
  1756 ;;		 -> INT2_obj(7), INT1_obj(7), INT0_obj(7), 
  1757 ;; Auto vars:     Size  Location     Type
  1758 ;;  ret             1   25[COMRAM] unsigned char 
  1759 ;; Return value:  Size  Location     Type
  1760 ;;                  1    wreg      unsigned char 
  1761 ;; Registers used:
  1762 ;;		wreg, fsr2l, fsr2h, status,2, status,0
  1763 ;; Tracked objects:
  1764 ;;		On entry : 0/0
  1765 ;;		On exit  : 0/0
  1766 ;;		Unchanged: 0/0
  1767 ;; Data sizes:     COMRAM   BANK0   BANK1   BANK2   BANK3   BANK4   BANK5   BANK6   BANK7   BANK8   BANK9  BANK10  BANK1
      +1  BANK12  BANK13  BANK14  BANK15
  1768 ;;      Params:         2       0       0       0       0       0       0       0       0       0       0       0       
      +0       0       0       0       0
  1769 ;;      Locals:         1       0       0       0       0       0       0       0       0       0       0       0       
      +0       0       0       0       0
  1770 ;;      Temps:          1       0       0       0       0       0       0       0       0       0       0       0       
      +0       0       0       0       0
  1771 ;;      Totals:         4       0       0       0       0       0       0       0       0       0       0       0       
      +0       0       0       0       0
  1772 ;;Total ram usage:        4 bytes
  1773 ;; Hardware stack levels used:    1
  1774 ;; Hardware stack levels required when called:    4
  1775 ;; This function calls:
  1776 ;;		Nothing
  1777 ;; This function is called by:
  1778 ;;		_Interrupt_INTx_Init
  1779 ;; This function uses a non-reentrant model
  1780 ;;
  1781                           
  1782                           	psect	text12
  1783  001118                     __ptext12:
  1784                           	opt stack 0
  1785  001118                     _Interrupt_INTx_Edge_Init:
  1786                           	opt stack 25
  1787                           
  1788                           ;mcal_external_interrupt.c: 285: Std_ReturnType ret = (Std_ReturnType)0x00;
  1789                           
  1790                           ;incstack = 0
  1791  001118  0E00               	movlw	0
  1792  00111A  6E60               	movwf	Interrupt_INTx_Edge_Init@ret,c
  1793                           
  1794                           ;mcal_external_interrupt.c: 286: if((0) == int_obj){
  1795  00111C  505D               	movf	Interrupt_INTx_Edge_Init@int_obj,w,c
  1796  00111E  105E               	iorwf	Interrupt_INTx_Edge_Init@int_obj+1,w,c
  1797  001120  A4D8               	btfss	status,2,c
  1798  001122  D047               	goto	l2988
  1799  001124  D044               	goto	l2986
  1800  001126                     l2956:
  1801                           
  1802                           ;mcal_external_interrupt.c: 292: if(INTERRUPT_FALLING_EDGE == int_obj->edge){ (INTCON2bi
      +                          ts.INTEDG0 = 0); }
  1803  001126  EE20 F004          	lfsr	2,4
  1804  00112A  505D               	movf	Interrupt_INTx_Edge_Init@int_obj,w,c
  1805  00112C  26D9               	addwf	fsr2l,f,c
  1806  00112E  505E               	movf	Interrupt_INTx_Edge_Init@int_obj+1,w,c
  1807  001130  22DA               	addwfc	fsr2h,f,c
  1808  001132  50DF               	movf	indf2,w,c
  1809  001134  A4D8               	btfss	status,2,c
  1810  001136  D002               	goto	l2960
  1811  001138  9CF1               	bcf	intcon2,6,c	;volatile
  1812  00113A  D037               	goto	l2984
  1813  00113C                     l2960:
  1814                           
  1815                           ;mcal_external_interrupt.c: 293: else if(INTERRUPT_RISING_EDGE == int_obj->edge){ (INTCO
      +                          N2bits.INTEDG0 = 1); }
  1816  00113C  EE20 F004          	lfsr	2,4
  1817  001140  505D               	movf	Interrupt_INTx_Edge_Init@int_obj,w,c
  1818  001142  26D9               	addwf	fsr2l,f,c
  1819  001144  505E               	movf	Interrupt_INTx_Edge_Init@int_obj+1,w,c
  1820  001146  22DA               	addwfc	fsr2h,f,c
  1821  001148  04DE               	decf	postinc2,w,c
  1822  00114A  A4D8               	btfss	status,2,c
  1823  00114C  D02E               	goto	l2984
  1824  00114E  8CF1               	bsf	intcon2,6,c	;volatile
  1825                           
  1826                           ;mcal_external_interrupt.c: 294: else{ }
  1827  001150  D02C               	goto	l2984
  1828  001152                     L12:
  1829  001152  6E60               	movwf	Interrupt_INTx_Edge_Init@ret,c
  1830                           
  1831                           ;mcal_external_interrupt.c: 296: break;
  1832  001154  D03F               	goto	l2990
  1833  001156                     l2966:
  1834                           
  1835                           ;mcal_external_interrupt.c: 298: if(INTERRUPT_FALLING_EDGE == int_obj->edge){ (INTCON2bi
      +                          ts.INTEDG1 = 0); }
  1836  001156  EE20 F004          	lfsr	2,4
  1837  00115A  505D               	movf	Interrupt_INTx_Edge_Init@int_obj,w,c
  1838  00115C  26D9               	addwf	fsr2l,f,c
  1839  00115E  505E               	movf	Interrupt_INTx_Edge_Init@int_obj+1,w,c
  1840  001160  22DA               	addwfc	fsr2h,f,c
  1841  001162  50DF               	movf	indf2,w,c
  1842  001164  A4D8               	btfss	status,2,c
  1843  001166  D002               	goto	l2970
  1844  001168  9AF1               	bcf	intcon2,5,c	;volatile
  1845  00116A  D01F               	goto	l2984
  1846  00116C                     l2970:
  1847                           
  1848                           ;mcal_external_interrupt.c: 299: else if(INTERRUPT_RISING_EDGE == int_obj->edge){ (INTCO
      +                          N2bits.INTEDG1 = 1); }
  1849  00116C  EE20 F004          	lfsr	2,4
  1850  001170  505D               	movf	Interrupt_INTx_Edge_Init@int_obj,w,c
  1851  001172  26D9               	addwf	fsr2l,f,c
  1852  001174  505E               	movf	Interrupt_INTx_Edge_Init@int_obj+1,w,c
  1853  001176  22DA               	addwfc	fsr2h,f,c
  1854  001178  04DE               	decf	postinc2,w,c
  1855  00117A  A4D8               	btfss	status,2,c
  1856  00117C  D016               	goto	l2984
  1857  00117E  8AF1               	bsf	intcon2,5,c	;volatile
  1858                           
  1859                           ;mcal_external_interrupt.c: 300: else{ }
  1860  001180  D014               	goto	l2984
  1861  001182                     l2976:
  1862                           
  1863                           ;mcal_external_interrupt.c: 304: if(INTERRUPT_FALLING_EDGE == int_obj->edge){ (INTCON2bi
      +                          ts.INTEDG2 = 0); }
  1864  001182  EE20 F004          	lfsr	2,4
  1865  001186  505D               	movf	Interrupt_INTx_Edge_Init@int_obj,w,c
  1866  001188  26D9               	addwf	fsr2l,f,c
  1867  00118A  505E               	movf	Interrupt_INTx_Edge_Init@int_obj+1,w,c
  1868  00118C  22DA               	addwfc	fsr2h,f,c
  1869  00118E  50DF               	movf	indf2,w,c
  1870  001190  A4D8               	btfss	status,2,c
  1871  001192  D002               	goto	l2980
  1872  001194  98F1               	bcf	intcon2,4,c	;volatile
  1873  001196  D009               	goto	l2984
  1874  001198                     l2980:
  1875                           
  1876                           ;mcal_external_interrupt.c: 305: else if(INTERRUPT_RISING_EDGE == int_obj->edge){ (INTCO
      +                          N2bits.INTEDG2 = 1); }
  1877  001198  EE20 F004          	lfsr	2,4
  1878  00119C  505D               	movf	Interrupt_INTx_Edge_Init@int_obj,w,c
  1879  00119E  26D9               	addwf	fsr2l,f,c
  1880  0011A0  505E               	movf	Interrupt_INTx_Edge_Init@int_obj+1,w,c
  1881  0011A2  22DA               	addwfc	fsr2h,f,c
  1882  0011A4  04DE               	decf	postinc2,w,c
  1883  0011A6  B4D8               	btfsc	status,2,c
  1884  0011A8  88F1               	bsf	intcon2,4,c	;volatile
  1885  0011AA                     l2984:
  1886                           
  1887                           ;mcal_external_interrupt.c: 307: ret = (Std_ReturnType)0x01;
  1888  0011AA  0E01               	movlw	1
  1889  0011AC  D7D2               	goto	L12
  1890  0011AE                     l2986:
  1891  0011AE  0E00               	movlw	0
  1892  0011B0  D7D0               	goto	L12
  1893  0011B2                     l2988:
  1894  0011B2  EE20 F005          	lfsr	2,5
  1895  0011B6  505D               	movf	Interrupt_INTx_Edge_Init@int_obj,w,c
  1896  0011B8  26D9               	addwf	fsr2l,f,c
  1897  0011BA  505E               	movf	Interrupt_INTx_Edge_Init@int_obj+1,w,c
  1898  0011BC  22DA               	addwfc	fsr2h,f,c
  1899  0011BE  50DF               	movf	indf2,w,c
  1900                           
  1901                           ; Switch size 1, requested type "space"
  1902                           ; Number of cases is 3, Range of values is 0 to 2
  1903                           ; switch strategies available:
  1904                           ; Name         Instructions Cycles
  1905                           ; simple_byte           10     6 (average)
  1906                           ;	Chosen strategy is simple_byte
  1907  0011C0  0A00               	xorlw	0	; case 0
  1908  0011C2  B4D8               	btfsc	status,2,c
  1909  0011C4  D7B0               	goto	l2956
  1910  0011C6  0A01               	xorlw	1	; case 1
  1911  0011C8  B4D8               	btfsc	status,2,c
  1912  0011CA  D7C5               	goto	l2966
  1913  0011CC  0A03               	xorlw	3	; case 2
  1914  0011CE  B4D8               	btfsc	status,2,c
  1915  0011D0  D7D8               	goto	l2976
  1916  0011D2  D7ED               	goto	l2986
  1917  0011D4                     l2990:
  1918                           
  1919                           ;mcal_external_interrupt.c: 311: }
  1920                           ;mcal_external_interrupt.c: 312: return ret;
  1921  0011D4  5060               	movf	Interrupt_INTx_Edge_Init@ret,w,c
  1922  0011D6  0012               	return	
  1923  0011D8                     __end_of_Interrupt_INTx_Edge_Init:
  1924                           	opt stack 0
  1925                           tblptru	equ	0xFF8
  1926                           tblptrh	equ	0xFF7
  1927                           tblptrl	equ	0xFF6
  1928                           tablat	equ	0xFF5
  1929                           prodh	equ	0xFF4
  1930                           prodl	equ	0xFF3
  1931                           intcon	equ	0xFF2
  1932                           intcon2	equ	0xFF1
  1933                           intcon3	equ	0xFF0
  1934                           postinc0	equ	0xFEE
  1935                           postdec1	equ	0xFE5
  1936                           fsr1l	equ	0xFE1
  1937                           indf2	equ	0xFDF
  1938                           postinc2	equ	0xFDE
  1939                           postdec2	equ	0xFDD
  1940                           fsr2h	equ	0xFDA
  1941                           fsr2l	equ	0xFD9
  1942                           status	equ	0xFD8
  1943                           
  1944 ;; *************** function _Interrupt_INTx_Disable *****************
  1945 ;; Defined at:
  1946 ;;		line 218 in file "MCAL_Layer/Interrupt_Driver/mcal_external_interrupt.c"
  1947 ;; Parameters:    Size  Location     Type
  1948 ;;  int_obj         2   22[COMRAM] PTR const struct .
  1949 ;;		 -> INT2_obj(7), INT1_obj(7), INT0_obj(7), 
  1950 ;; Auto vars:     Size  Location     Type
  1951 ;;  ret             1   24[COMRAM] unsigned char 
  1952 ;; Return value:  Size  Location     Type
  1953 ;;                  1    wreg      unsigned char 
  1954 ;; Registers used:
  1955 ;;		wreg, fsr2l, fsr2h, status,2, status,0
  1956 ;; Tracked objects:
  1957 ;;		On entry : 0/0
  1958 ;;		On exit  : 0/0
  1959 ;;		Unchanged: 0/0
  1960 ;; Data sizes:     COMRAM   BANK0   BANK1   BANK2   BANK3   BANK4   BANK5   BANK6   BANK7   BANK8   BANK9  BANK10  BANK1
      +1  BANK12  BANK13  BANK14  BANK15
  1961 ;;      Params:         2       0       0       0       0       0       0       0       0       0       0       0       
      +0       0       0       0       0
  1962 ;;      Locals:         1       0       0       0       0       0       0       0       0       0       0       0       
      +0       0       0       0       0
  1963 ;;      Temps:          0       0       0       0       0       0       0       0       0       0       0       0       
      +0       0       0       0       0
  1964 ;;      Totals:         3       0       0       0       0       0       0       0       0       0       0       0       
      +0       0       0       0       0
  1965 ;;Total ram usage:        3 bytes
  1966 ;; Hardware stack levels used:    1
  1967 ;; Hardware stack levels required when called:    4
  1968 ;; This function calls:
  1969 ;;		Nothing
  1970 ;; This function is called by:
  1971 ;;		_Interrupt_INTx_Init
  1972 ;;		_Interrupt_INTx_DeInit
  1973 ;; This function uses a non-reentrant model
  1974 ;;
  1975                           
  1976                           	psect	text13
  1977  0014A8                     __ptext13:
  1978                           	opt stack 0
  1979  0014A8                     _Interrupt_INTx_Disable:
  1980                           	opt stack 25
  1981                           
  1982                           ;mcal_external_interrupt.c: 219: Std_ReturnType ret = (Std_ReturnType)0x00;
  1983                           
  1984                           ;incstack = 0
  1985  0014A8  0E00               	movlw	0
  1986  0014AA  6E5F               	movwf	Interrupt_INTx_Disable@ret,c
  1987                           
  1988                           ;mcal_external_interrupt.c: 220: if((0) == int_obj){
  1989  0014AC  505D               	movf	Interrupt_INTx_Disable@int_obj,w,c
  1990  0014AE  105E               	iorwf	Interrupt_INTx_Disable@int_obj+1,w,c
  1991  0014B0  A4D8               	btfss	status,2,c
  1992  0014B2  D00C               	goto	l2924
  1993  0014B4  D009               	goto	l2922
  1994  0014B6                     l793:
  1995                           
  1996                           ;mcal_external_interrupt.c: 226: (INTCONbits.INT0IE = 0);
  1997  0014B6  98F2               	bcf	intcon,4,c	;volatile
  1998  0014B8  D005               	goto	l2920
  1999  0014BA                     L13:
  2000  0014BA  6E5F               	movwf	Interrupt_INTx_Disable@ret,c
  2001                           
  2002                           ;mcal_external_interrupt.c: 228: break;
  2003  0014BC  D018               	goto	l2926
  2004  0014BE                     l795:
  2005                           
  2006                           ;mcal_external_interrupt.c: 230: (INTCON3bits.INT1IE = 0);
  2007  0014BE  96F0               	bcf	intcon3,3,c	;volatile
  2008  0014C0  D001               	goto	l2920
  2009  0014C2                     l796:
  2010                           
  2011                           ;mcal_external_interrupt.c: 234: (INTCON3bits.INT2IE = 0);
  2012  0014C2  98F0               	bcf	intcon3,4,c	;volatile
  2013  0014C4                     l2920:
  2014                           
  2015                           ;mcal_external_interrupt.c: 235: ret = (Std_ReturnType)0x01;
  2016  0014C4  0E01               	movlw	1
  2017  0014C6  D7F9               	goto	L13
  2018  0014C8                     l2922:
  2019  0014C8  0E00               	movlw	0
  2020  0014CA  D7F7               	goto	L13
  2021  0014CC                     l2924:
  2022  0014CC  EE20 F005          	lfsr	2,5
  2023  0014D0  505D               	movf	Interrupt_INTx_Disable@int_obj,w,c
  2024  0014D2  26D9               	addwf	fsr2l,f,c
  2025  0014D4  505E               	movf	Interrupt_INTx_Disable@int_obj+1,w,c
  2026  0014D6  22DA               	addwfc	fsr2h,f,c
  2027  0014D8  50DF               	movf	indf2,w,c
  2028                           
  2029                           ; Switch size 1, requested type "space"
  2030                           ; Number of cases is 3, Range of values is 0 to 2
  2031                           ; switch strategies available:
  2032                           ; Name         Instructions Cycles
  2033                           ; simple_byte           10     6 (average)
  2034                           ;	Chosen strategy is simple_byte
  2035  0014DA  0A00               	xorlw	0	; case 0
  2036  0014DC  B4D8               	btfsc	status,2,c
  2037  0014DE  D7EB               	goto	l793
  2038  0014E0  0A01               	xorlw	1	; case 1
  2039  0014E2  B4D8               	btfsc	status,2,c
  2040  0014E4  D7EC               	goto	l795
  2041  0014E6  0A03               	xorlw	3	; case 2
  2042  0014E8  B4D8               	btfsc	status,2,c
  2043  0014EA  D7EB               	goto	l796
  2044  0014EC  D7ED               	goto	l2922
  2045  0014EE                     l2926:
  2046                           
  2047                           ;mcal_external_interrupt.c: 239: }
  2048                           ;mcal_external_interrupt.c: 240: return ret;
  2049  0014EE  505F               	movf	Interrupt_INTx_Disable@ret,w,c
  2050  0014F0  0012               	return	
  2051  0014F2                     __end_of_Interrupt_INTx_Disable:
  2052                           	opt stack 0
  2053                           tblptru	equ	0xFF8
  2054                           tblptrh	equ	0xFF7
  2055                           tblptrl	equ	0xFF6
  2056                           tablat	equ	0xFF5
  2057                           prodh	equ	0xFF4
  2058                           prodl	equ	0xFF3
  2059                           intcon	equ	0xFF2
  2060                           intcon2	equ	0xFF1
  2061                           intcon3	equ	0xFF0
  2062                           postinc0	equ	0xFEE
  2063                           postdec1	equ	0xFE5
  2064                           fsr1l	equ	0xFE1
  2065                           indf2	equ	0xFDF
  2066                           postinc2	equ	0xFDE
  2067                           postdec2	equ	0xFDD
  2068                           fsr2h	equ	0xFDA
  2069                           fsr2l	equ	0xFD9
  2070                           status	equ	0xFD8
  2071                           
  2072 ;; *************** function _Interrupt_INTx_Clear_Flag *****************
  2073 ;; Defined at:
  2074 ;;		line 341 in file "MCAL_Layer/Interrupt_Driver/mcal_external_interrupt.c"
  2075 ;; Parameters:    Size  Location     Type
  2076 ;;  int_obj         2   22[COMRAM] PTR const struct .
  2077 ;;		 -> INT2_obj(7), INT1_obj(7), INT0_obj(7), 
  2078 ;; Auto vars:     Size  Location     Type
  2079 ;;  ret             1   24[COMRAM] unsigned char 
  2080 ;; Return value:  Size  Location     Type
  2081 ;;                  1    wreg      unsigned char 
  2082 ;; Registers used:
  2083 ;;		wreg, fsr2l, fsr2h, status,2, status,0
  2084 ;; Tracked objects:
  2085 ;;		On entry : 0/0
  2086 ;;		On exit  : 0/0
  2087 ;;		Unchanged: 0/0
  2088 ;; Data sizes:     COMRAM   BANK0   BANK1   BANK2   BANK3   BANK4   BANK5   BANK6   BANK7   BANK8   BANK9  BANK10  BANK1
      +1  BANK12  BANK13  BANK14  BANK15
  2089 ;;      Params:         2       0       0       0       0       0       0       0       0       0       0       0       
      +0       0       0       0       0
  2090 ;;      Locals:         1       0       0       0       0       0       0       0       0       0       0       0       
      +0       0       0       0       0
  2091 ;;      Temps:          0       0       0       0       0       0       0       0       0       0       0       0       
      +0       0       0       0       0
  2092 ;;      Totals:         3       0       0       0       0       0       0       0       0       0       0       0       
      +0       0       0       0       0
  2093 ;;Total ram usage:        3 bytes
  2094 ;; Hardware stack levels used:    1
  2095 ;; Hardware stack levels required when called:    4
  2096 ;; This function calls:
  2097 ;;		Nothing
  2098 ;; This function is called by:
  2099 ;;		_Interrupt_INTx_Init
  2100 ;; This function uses a non-reentrant model
  2101 ;;
  2102                           
  2103                           	psect	text14
  2104  0014F2                     __ptext14:
  2105                           	opt stack 0
  2106  0014F2                     _Interrupt_INTx_Clear_Flag:
  2107                           	opt stack 25
  2108                           
  2109                           ;mcal_external_interrupt.c: 342: Std_ReturnType ret = (Std_ReturnType)0x00;
  2110                           
  2111                           ;incstack = 0
  2112  0014F2  0E00               	movlw	0
  2113  0014F4  6E5F               	movwf	Interrupt_INTx_Clear_Flag@ret,c
  2114                           
  2115                           ;mcal_external_interrupt.c: 343: if((0) == int_obj){
  2116  0014F6  505D               	movf	Interrupt_INTx_Clear_Flag@int_obj,w,c
  2117  0014F8  105E               	iorwf	Interrupt_INTx_Clear_Flag@int_obj+1,w,c
  2118  0014FA  A4D8               	btfss	status,2,c
  2119  0014FC  D00C               	goto	l2944
  2120  0014FE  D009               	goto	l2942
  2121  001500                     l832:
  2122                           
  2123                           ;mcal_external_interrupt.c: 349: (INTCONbits.INT0IF = 0);
  2124  001500  92F2               	bcf	intcon,1,c	;volatile
  2125  001502  D005               	goto	l2940
  2126  001504                     L14:
  2127  001504  6E5F               	movwf	Interrupt_INTx_Clear_Flag@ret,c
  2128                           
  2129                           ;mcal_external_interrupt.c: 351: break;
  2130  001506  D018               	goto	l2946
  2131  001508                     l834:
  2132                           
  2133                           ;mcal_external_interrupt.c: 353: (INTCON3bits.INT1IF = 0);
  2134  001508  90F0               	bcf	intcon3,0,c	;volatile
  2135  00150A  D001               	goto	l2940
  2136  00150C                     l835:
  2137                           
  2138                           ;mcal_external_interrupt.c: 357: (INTCON3bits.INT2IF = 0);
  2139  00150C  92F0               	bcf	intcon3,1,c	;volatile
  2140  00150E                     l2940:
  2141                           
  2142                           ;mcal_external_interrupt.c: 358: ret = (Std_ReturnType)0x01;
  2143  00150E  0E01               	movlw	1
  2144  001510  D7F9               	goto	L14
  2145  001512                     l2942:
  2146  001512  0E00               	movlw	0
  2147  001514  D7F7               	goto	L14
  2148  001516                     l2944:
  2149  001516  EE20 F005          	lfsr	2,5
  2150  00151A  505D               	movf	Interrupt_INTx_Clear_Flag@int_obj,w,c
  2151  00151C  26D9               	addwf	fsr2l,f,c
  2152  00151E  505E               	movf	Interrupt_INTx_Clear_Flag@int_obj+1,w,c
  2153  001520  22DA               	addwfc	fsr2h,f,c
  2154  001522  50DF               	movf	indf2,w,c
  2155                           
  2156                           ; Switch size 1, requested type "space"
  2157                           ; Number of cases is 3, Range of values is 0 to 2
  2158                           ; switch strategies available:
  2159                           ; Name         Instructions Cycles
  2160                           ; simple_byte           10     6 (average)
  2161                           ;	Chosen strategy is simple_byte
  2162  001524  0A00               	xorlw	0	; case 0
  2163  001526  B4D8               	btfsc	status,2,c
  2164  001528  D7EB               	goto	l832
  2165  00152A  0A01               	xorlw	1	; case 1
  2166  00152C  B4D8               	btfsc	status,2,c
  2167  00152E  D7EC               	goto	l834
  2168  001530  0A03               	xorlw	3	; case 2
  2169  001532  B4D8               	btfsc	status,2,c
  2170  001534  D7EB               	goto	l835
  2171  001536  D7ED               	goto	l2942
  2172  001538                     l2946:
  2173                           
  2174                           ;mcal_external_interrupt.c: 362: }
  2175                           ;mcal_external_interrupt.c: 363: return ret;
  2176  001538  505F               	movf	Interrupt_INTx_Clear_Flag@ret,w,c
  2177  00153A  0012               	return	
  2178  00153C                     __end_of_Interrupt_INTx_Clear_Flag:
  2179                           	opt stack 0
  2180                           tblptru	equ	0xFF8
  2181                           tblptrh	equ	0xFF7
  2182                           tblptrl	equ	0xFF6
  2183                           tablat	equ	0xFF5
  2184                           prodh	equ	0xFF4
  2185                           prodl	equ	0xFF3
  2186                           intcon	equ	0xFF2
  2187                           intcon2	equ	0xFF1
  2188                           intcon3	equ	0xFF0
  2189                           postinc0	equ	0xFEE
  2190                           postdec1	equ	0xFE5
  2191                           fsr1l	equ	0xFE1
  2192                           indf2	equ	0xFDF
  2193                           postinc2	equ	0xFDE
  2194                           postdec2	equ	0xFDD
  2195                           fsr2h	equ	0xFDA
  2196                           fsr2l	equ	0xFD9
  2197                           status	equ	0xFD8
  2198                           
  2199 ;; *************** function _InterruptManager *****************
  2200 ;; Defined at:
  2201 ;;		line 16 in file "MCAL_Layer/Interrupt_Driver/mcal_iterrupt_mangaer.c"
  2202 ;; Parameters:    Size  Location     Type
  2203 ;;		None
  2204 ;; Auto vars:     Size  Location     Type
  2205 ;;		None
  2206 ;; Return value:  Size  Location     Type
  2207 ;;                  1    wreg      void 
  2208 ;; Registers used:
  2209 ;;		wreg, fsr2l, fsr2h, status,2, status,0, pclath, tosl, prodl, prodh, cstack
  2210 ;; Tracked objects:
  2211 ;;		On entry : 0/0
  2212 ;;		On exit  : 0/0
  2213 ;;		Unchanged: 0/0
  2214 ;; Data sizes:     COMRAM   BANK0   BANK1   BANK2   BANK3   BANK4   BANK5   BANK6   BANK7   BANK8   BANK9  BANK10  BANK1
      +1  BANK12  BANK13  BANK14  BANK15
  2215 ;;      Params:         0       0       0       0       0       0       0       0       0       0       0       0       
      +0       0       0       0       0
  2216 ;;      Locals:         0       0       0       0       0       0       0       0       0       0       0       0       
      +0       0       0       0       0
  2217 ;;      Temps:         14       0       0       0       0       0       0       0       0       0       0       0       
      +0       0       0       0       0
  2218 ;;      Totals:        14       0       0       0       0       0       0       0       0       0       0       0       
      +0       0       0       0       0
  2219 ;;Total ram usage:       14 bytes
  2220 ;; Hardware stack levels used:    1
  2221 ;; Hardware stack levels required when called:    3
  2222 ;; This function calls:
  2223 ;;		_INT0_ISR
  2224 ;;		_INT1_ISR
  2225 ;;		_INT2_ISR
  2226 ;; This function is called by:
  2227 ;;		Interrupt level 2
  2228 ;; This function uses a non-reentrant model
  2229 ;;
  2230                           
  2231                           	psect	intcode
  2232  000008                     __pintcode:
  2233                           	opt stack 0
  2234  000008                     _InterruptManager:
  2235                           	opt stack 24
  2236                           
  2237                           ;incstack = 0
  2238  000008  8269               	bsf	btemp,1,c	;set compiler interrupt flag (level 2)
  2239  00000A  EDEC  F008         	call	int_func,f	;refresh shadow registers
  2240                           tblptru	equ	0xFF8
  2241                           tblptrh	equ	0xFF7
  2242                           tblptrl	equ	0xFF6
  2243                           tablat	equ	0xFF5
  2244                           prodh	equ	0xFF4
  2245                           prodl	equ	0xFF3
  2246                           intcon	equ	0xFF2
  2247                           intcon2	equ	0xFF1
  2248                           intcon3	equ	0xFF0
  2249                           postinc0	equ	0xFEE
  2250                           postdec1	equ	0xFE5
  2251                           fsr1l	equ	0xFE1
  2252                           indf2	equ	0xFDF
  2253                           postinc2	equ	0xFDE
  2254                           postdec2	equ	0xFDD
  2255                           fsr2h	equ	0xFDA
  2256                           fsr2l	equ	0xFD9
  2257                           status	equ	0xFD8
  2258                           
  2259                           	psect	intcode_body
  2260  0011D8                     __pintcode_body:
  2261                           	opt stack 24
  2262  0011D8                     int_func:
  2263                           	opt stack 24
  2264  0011D8  0006               	pop		; remove dummy address from shadow register refresh
  2265  0011DA  CFFA F04F          	movff	pclath,??_InterruptManager
  2266  0011DE  CFFB F050          	movff	pclatu,??_InterruptManager+1
  2267  0011E2  CFE9 F051          	movff	fsr0l,??_InterruptManager+2
  2268  0011E6  CFEA F052          	movff	fsr0h,??_InterruptManager+3
  2269  0011EA  CFE1 F053          	movff	fsr1l,??_InterruptManager+4
  2270  0011EE  CFE2 F054          	movff	fsr1h,??_InterruptManager+5
  2271  0011F2  CFD9 F055          	movff	fsr2l,??_InterruptManager+6
  2272  0011F6  CFDA F056          	movff	fsr2h,??_InterruptManager+7
  2273  0011FA  CFF3 F057          	movff	prodl,??_InterruptManager+8
  2274  0011FE  CFF4 F058          	movff	prodh,??_InterruptManager+9
  2275  001202  CFF6 F059          	movff	tblptrl,??_InterruptManager+10
  2276  001206  CFF7 F05A          	movff	tblptrh,??_InterruptManager+11
  2277  00120A  CFF8 F05B          	movff	tblptru,??_InterruptManager+12
  2278  00120E  CFF5 F05C          	movff	tablat,??_InterruptManager+13
  2279                           
  2280                           ;mcal_iterrupt_mangaer.c: 17: if(INTCONbits.INT0IE==1 && INTCONbits.INT0IF==1){
  2281  001212  B8F2               	btfsc	intcon,4,c	;volatile
  2282  001214  A2F2               	btfss	intcon,1,c	;volatile
  2283  001216  D003               	goto	i2l912
  2284                           
  2285                           ;mcal_iterrupt_mangaer.c: 18: INT0_ISR();
  2286  001218  EC72  F00B         	call	_INT0_ISR	;wreg free
  2287                           
  2288                           ;mcal_iterrupt_mangaer.c: 19: }else if(INTCON3bits.INT1IE==1 && INTCON3bits.INT1IF==1){
  2289  00121C  D00B               	goto	i2l918
  2290  00121E                     i2l912:
  2291  00121E  B6F0               	btfsc	intcon3,3,c	;volatile
  2292  001220  A0F0               	btfss	intcon3,0,c	;volatile
  2293  001222  D003               	goto	i2l914
  2294                           
  2295                           ;mcal_iterrupt_mangaer.c: 20: INT1_ISR();
  2296  001224  EC62  F00B         	call	_INT1_ISR	;wreg free
  2297                           
  2298                           ;mcal_iterrupt_mangaer.c: 21: }else if(INTCON3bits.INT2IE==1 && INTCON3bits.INT2IF==1){
  2299  001228  D005               	goto	i2l918
  2300  00122A                     i2l914:
  2301  00122A  B8F0               	btfsc	intcon3,4,c	;volatile
  2302  00122C  A2F0               	btfss	intcon3,1,c	;volatile
  2303  00122E  D002               	goto	i2l918
  2304                           
  2305                           ;mcal_iterrupt_mangaer.c: 22: INT2_ISR();
  2306  001230  EC52  F00B         	call	_INT2_ISR	;wreg free
  2307  001234                     i2l918:
  2308  001234  C05C  FFF5         	movff	??_InterruptManager+13,tablat
  2309  001238  C05B  FFF8         	movff	??_InterruptManager+12,tblptru
  2310  00123C  C05A  FFF7         	movff	??_InterruptManager+11,tblptrh
  2311  001240  C059  FFF6         	movff	??_InterruptManager+10,tblptrl
  2312  001244  C058  FFF4         	movff	??_InterruptManager+9,prodh
  2313  001248  C057  FFF3         	movff	??_InterruptManager+8,prodl
  2314  00124C  C056  FFDA         	movff	??_InterruptManager+7,fsr2h
  2315  001250  C055  FFD9         	movff	??_InterruptManager+6,fsr2l
  2316  001254  C054  FFE2         	movff	??_InterruptManager+5,fsr1h
  2317  001258  C053  FFE1         	movff	??_InterruptManager+4,fsr1l
  2318  00125C  C052  FFEA         	movff	??_InterruptManager+3,fsr0h
  2319  001260  C051  FFE9         	movff	??_InterruptManager+2,fsr0l
  2320  001264  C050  FFFB         	movff	??_InterruptManager+1,pclatu
  2321  001268  C04F  FFFA         	movff	??_InterruptManager,pclath
  2322  00126C  9269               	bcf	btemp,1,c	;clear compiler interrupt flag (level 2)
  2323  00126E  0011               	retfie		f
  2324  001270                     __end_of_InterruptManager:
  2325                           	opt stack 0
  2326                           pclatu	equ	0xFFB
  2327                           pclath	equ	0xFFA
  2328                           tblptru	equ	0xFF8
  2329                           tblptrh	equ	0xFF7
  2330                           tblptrl	equ	0xFF6
  2331                           tablat	equ	0xFF5
  2332                           prodh	equ	0xFF4
  2333                           prodl	equ	0xFF3
  2334                           intcon	equ	0xFF2
  2335                           intcon2	equ	0xFF1
  2336                           intcon3	equ	0xFF0
  2337                           postinc0	equ	0xFEE
  2338                           fsr0h	equ	0xFEA
  2339                           fsr0l	equ	0xFE9
  2340                           postdec1	equ	0xFE5
  2341                           fsr1h	equ	0xFE2
  2342                           fsr1l	equ	0xFE1
  2343                           indf2	equ	0xFDF
  2344                           postinc2	equ	0xFDE
  2345                           postdec2	equ	0xFDD
  2346                           fsr2h	equ	0xFDA
  2347                           fsr2l	equ	0xFD9
  2348                           status	equ	0xFD8
  2349                           
  2350 ;; *************** function _INT2_ISR *****************
  2351 ;; Defined at:
  2352 ;;		line 85 in file "MCAL_Layer/Interrupt_Driver/mcal_external_interrupt.c"
  2353 ;; Parameters:    Size  Location     Type
  2354 ;;		None
  2355 ;; Auto vars:     Size  Location     Type
  2356 ;;		None
  2357 ;; Return value:  Size  Location     Type
  2358 ;;                  1    wreg      void 
  2359 ;; Registers used:
  2360 ;;		wreg, fsr2l, fsr2h, status,2, status,0, pclath, tosl, prodl, prodh, cstack
  2361 ;; Tracked objects:
  2362 ;;		On entry : 0/0
  2363 ;;		On exit  : 0/0
  2364 ;;		Unchanged: 0/0
  2365 ;; Data sizes:     COMRAM   BANK0   BANK1   BANK2   BANK3   BANK4   BANK5   BANK6   BANK7   BANK8   BANK9  BANK10  BANK1
      +1  BANK12  BANK13  BANK14  BANK15
  2366 ;;      Params:         0       0       0       0       0       0       0       0       0       0       0       0       
      +0       0       0       0       0
  2367 ;;      Locals:         0       0       0       0       0       0       0       0       0       0       0       0       
      +0       0       0       0       0
  2368 ;;      Temps:          0       0       0       0       0       0       0       0       0       0       0       0       
      +0       0       0       0       0
  2369 ;;      Totals:         0       0       0       0       0       0       0       0       0       0       0       0       
      +0       0       0       0       0
  2370 ;;Total ram usage:        0 bytes
  2371 ;; Hardware stack levels used:    1
  2372 ;; Hardware stack levels required when called:    2
  2373 ;; This function calls:
  2374 ;;		Absolute function
  2375 ;;		_INT0_APP_ISR
  2376 ;;		_INT1_APP_ISR
  2377 ;;		_INT2_APP_ISR
  2378 ;; This function is called by:
  2379 ;;		_InterruptManager
  2380 ;; This function uses a non-reentrant model
  2381 ;;
  2382                           
  2383                           	psect	text16
  2384  0016A4                     __ptext16:
  2385                           	opt stack 0
  2386  0016A4                     _INT2_ISR:
  2387                           	opt stack 24
  2388                           
  2389                           ;mcal_external_interrupt.c: 87: (INTCON3bits.INT2IF = 0);
  2390                           
  2391                           ;incstack = 0
  2392  0016A4  92F0               	bcf	intcon3,1,c	;volatile
  2393                           
  2394                           ;mcal_external_interrupt.c: 90: if(INT2_InterruptHandler){ INT2_InterruptHandler(); }
  2395  0016A6  5063               	movf	_INT2_InterruptHandler,w,c
  2396  0016A8  1064               	iorwf	_INT2_InterruptHandler+1,w,c
  2397  0016AA  B4D8               	btfsc	status,2,c
  2398  0016AC  0012               	return	
  2399  0016AE  D801               	call	i2u150_48
  2400  0016B0  0012               	return	
  2401  0016B2                     i2u150_48:
  2402  0016B2  0005               	push	
  2403  0016B4  6EFA               	movwf	pclath,c
  2404  0016B6  5063               	movf	_INT2_InterruptHandler,w,c
  2405  0016B8  6EFD               	movwf	tosl,c
  2406  0016BA  5064               	movf	_INT2_InterruptHandler+1,w,c
  2407  0016BC  6EFE               	movwf	tosh,c
  2408  0016BE  6AFF               	clrf	tosu,c
  2409  0016C0  50FA               	movf	pclath,w,c
  2410  0016C2  0012               	return		;indir
  2411  0016C4                     __end_of_INT2_ISR:
  2412                           	opt stack 0
  2413                           tosu	equ	0xFFF
  2414                           tosh	equ	0xFFE
  2415                           tosl	equ	0xFFD
  2416                           pclatu	equ	0xFFB
  2417                           pclath	equ	0xFFA
  2418                           tblptru	equ	0xFF8
  2419                           tblptrh	equ	0xFF7
  2420                           tblptrl	equ	0xFF6
  2421                           tablat	equ	0xFF5
  2422                           prodh	equ	0xFF4
  2423                           prodl	equ	0xFF3
  2424                           intcon	equ	0xFF2
  2425                           intcon2	equ	0xFF1
  2426                           intcon3	equ	0xFF0
  2427                           postinc0	equ	0xFEE
  2428                           fsr0h	equ	0xFEA
  2429                           fsr0l	equ	0xFE9
  2430                           postdec1	equ	0xFE5
  2431                           fsr1h	equ	0xFE2
  2432                           fsr1l	equ	0xFE1
  2433                           indf2	equ	0xFDF
  2434                           postinc2	equ	0xFDE
  2435                           postdec2	equ	0xFDD
  2436                           fsr2h	equ	0xFDA
  2437                           fsr2l	equ	0xFD9
  2438                           status	equ	0xFD8
  2439                           
  2440 ;; *************** function _INT1_ISR *****************
  2441 ;; Defined at:
  2442 ;;		line 76 in file "MCAL_Layer/Interrupt_Driver/mcal_external_interrupt.c"
  2443 ;; Parameters:    Size  Location     Type
  2444 ;;		None
  2445 ;; Auto vars:     Size  Location     Type
  2446 ;;		None
  2447 ;; Return value:  Size  Location     Type
  2448 ;;                  1    wreg      void 
  2449 ;; Registers used:
  2450 ;;		wreg, fsr2l, fsr2h, status,2, status,0, pclath, tosl, prodl, prodh, cstack
  2451 ;; Tracked objects:
  2452 ;;		On entry : 0/0
  2453 ;;		On exit  : 0/0
  2454 ;;		Unchanged: 0/0
  2455 ;; Data sizes:     COMRAM   BANK0   BANK1   BANK2   BANK3   BANK4   BANK5   BANK6   BANK7   BANK8   BANK9  BANK10  BANK1
      +1  BANK12  BANK13  BANK14  BANK15
  2456 ;;      Params:         0       0       0       0       0       0       0       0       0       0       0       0       
      +0       0       0       0       0
  2457 ;;      Locals:         0       0       0       0       0       0       0       0       0       0       0       0       
      +0       0       0       0       0
  2458 ;;      Temps:          0       0       0       0       0       0       0       0       0       0       0       0       
      +0       0       0       0       0
  2459 ;;      Totals:         0       0       0       0       0       0       0       0       0       0       0       0       
      +0       0       0       0       0
  2460 ;;Total ram usage:        0 bytes
  2461 ;; Hardware stack levels used:    1
  2462 ;; Hardware stack levels required when called:    2
  2463 ;; This function calls:
  2464 ;;		Absolute function
  2465 ;;		_INT0_APP_ISR
  2466 ;;		_INT1_APP_ISR
  2467 ;;		_INT2_APP_ISR
  2468 ;; This function is called by:
  2469 ;;		_InterruptManager
  2470 ;; This function uses a non-reentrant model
  2471 ;;
  2472                           
  2473                           	psect	text17
  2474  0016C4                     __ptext17:
  2475                           	opt stack 0
  2476  0016C4                     _INT1_ISR:
  2477                           	opt stack 24
  2478                           
  2479                           ;mcal_external_interrupt.c: 78: (INTCON3bits.INT1IF = 0);
  2480                           
  2481                           ;incstack = 0
  2482  0016C4  90F0               	bcf	intcon3,0,c	;volatile
  2483                           
  2484                           ;mcal_external_interrupt.c: 81: if(INT1_InterruptHandler){ INT1_InterruptHandler(); }
  2485  0016C6  5065               	movf	_INT1_InterruptHandler,w,c
  2486  0016C8  1066               	iorwf	_INT1_InterruptHandler+1,w,c
  2487  0016CA  B4D8               	btfsc	status,2,c
  2488  0016CC  0012               	return	
  2489  0016CE  D801               	call	i2u148_48
  2490  0016D0  0012               	return	
  2491  0016D2                     i2u148_48:
  2492  0016D2  0005               	push	
  2493  0016D4  6EFA               	movwf	pclath,c
  2494  0016D6  5065               	movf	_INT1_InterruptHandler,w,c
  2495  0016D8  6EFD               	movwf	tosl,c
  2496  0016DA  5066               	movf	_INT1_InterruptHandler+1,w,c
  2497  0016DC  6EFE               	movwf	tosh,c
  2498  0016DE  6AFF               	clrf	tosu,c
  2499  0016E0  50FA               	movf	pclath,w,c
  2500  0016E2  0012               	return		;indir
  2501  0016E4                     __end_of_INT1_ISR:
  2502                           	opt stack 0
  2503                           tosu	equ	0xFFF
  2504                           tosh	equ	0xFFE
  2505                           tosl	equ	0xFFD
  2506                           pclatu	equ	0xFFB
  2507                           pclath	equ	0xFFA
  2508                           tblptru	equ	0xFF8
  2509                           tblptrh	equ	0xFF7
  2510                           tblptrl	equ	0xFF6
  2511                           tablat	equ	0xFF5
  2512                           prodh	equ	0xFF4
  2513                           prodl	equ	0xFF3
  2514                           intcon	equ	0xFF2
  2515                           intcon2	equ	0xFF1
  2516                           intcon3	equ	0xFF0
  2517                           postinc0	equ	0xFEE
  2518                           fsr0h	equ	0xFEA
  2519                           fsr0l	equ	0xFE9
  2520                           postdec1	equ	0xFE5
  2521                           fsr1h	equ	0xFE2
  2522                           fsr1l	equ	0xFE1
  2523                           indf2	equ	0xFDF
  2524                           postinc2	equ	0xFDE
  2525                           postdec2	equ	0xFDD
  2526                           fsr2h	equ	0xFDA
  2527                           fsr2l	equ	0xFD9
  2528                           status	equ	0xFD8
  2529                           
  2530 ;; *************** function _INT0_ISR *****************
  2531 ;; Defined at:
  2532 ;;		line 64 in file "MCAL_Layer/Interrupt_Driver/mcal_external_interrupt.c"
  2533 ;; Parameters:    Size  Location     Type
  2534 ;;		None
  2535 ;; Auto vars:     Size  Location     Type
  2536 ;;		None
  2537 ;; Return value:  Size  Location     Type
  2538 ;;                  1    wreg      void 
  2539 ;; Registers used:
  2540 ;;		wreg, fsr2l, fsr2h, status,2, status,0, pclath, tosl, prodl, prodh, cstack
  2541 ;; Tracked objects:
  2542 ;;		On entry : 0/0
  2543 ;;		On exit  : 0/0
  2544 ;;		Unchanged: 0/0
  2545 ;; Data sizes:     COMRAM   BANK0   BANK1   BANK2   BANK3   BANK4   BANK5   BANK6   BANK7   BANK8   BANK9  BANK10  BANK1
      +1  BANK12  BANK13  BANK14  BANK15
  2546 ;;      Params:         0       0       0       0       0       0       0       0       0       0       0       0       
      +0       0       0       0       0
  2547 ;;      Locals:         0       0       0       0       0       0       0       0       0       0       0       0       
      +0       0       0       0       0
  2548 ;;      Temps:          0       0       0       0       0       0       0       0       0       0       0       0       
      +0       0       0       0       0
  2549 ;;      Totals:         0       0       0       0       0       0       0       0       0       0       0       0       
      +0       0       0       0       0
  2550 ;;Total ram usage:        0 bytes
  2551 ;; Hardware stack levels used:    1
  2552 ;; Hardware stack levels required when called:    2
  2553 ;; This function calls:
  2554 ;;		Absolute function
  2555 ;;		_INT0_APP_ISR
  2556 ;;		_INT1_APP_ISR
  2557 ;;		_INT2_APP_ISR
  2558 ;; This function is called by:
  2559 ;;		_InterruptManager
  2560 ;; This function uses a non-reentrant model
  2561 ;;
  2562                           
  2563                           	psect	text18
  2564  0016E4                     __ptext18:
  2565                           	opt stack 0
  2566  0016E4                     _INT0_ISR:
  2567                           	opt stack 24
  2568                           
  2569                           ;mcal_external_interrupt.c: 66: (INTCONbits.INT0IF = 0);
  2570                           
  2571                           ;incstack = 0
  2572  0016E4  92F2               	bcf	intcon,1,c	;volatile
  2573                           
  2574                           ;mcal_external_interrupt.c: 69: if(INT0_InterruptHandler){ INT0_InterruptHandler(); }
  2575  0016E6  5067               	movf	_INT0_InterruptHandler,w,c
  2576  0016E8  1068               	iorwf	_INT0_InterruptHandler+1,w,c
  2577  0016EA  B4D8               	btfsc	status,2,c
  2578  0016EC  0012               	return	
  2579  0016EE  D801               	call	i2u146_48
  2580  0016F0  0012               	return	
  2581  0016F2                     i2u146_48:
  2582  0016F2  0005               	push	
  2583  0016F4  6EFA               	movwf	pclath,c
  2584  0016F6  5067               	movf	_INT0_InterruptHandler,w,c
  2585  0016F8  6EFD               	movwf	tosl,c
  2586  0016FA  5068               	movf	_INT0_InterruptHandler+1,w,c
  2587  0016FC  6EFE               	movwf	tosh,c
  2588  0016FE  6AFF               	clrf	tosu,c
  2589  001700  50FA               	movf	pclath,w,c
  2590  001702  0012               	return		;indir
  2591  001704                     __end_of_INT0_ISR:
  2592                           	opt stack 0
  2593                           tosu	equ	0xFFF
  2594                           tosh	equ	0xFFE
  2595                           tosl	equ	0xFFD
  2596                           pclatu	equ	0xFFB
  2597                           pclath	equ	0xFFA
  2598                           tblptru	equ	0xFF8
  2599                           tblptrh	equ	0xFF7
  2600                           tblptrl	equ	0xFF6
  2601                           tablat	equ	0xFF5
  2602                           prodh	equ	0xFF4
  2603                           prodl	equ	0xFF3
  2604                           intcon	equ	0xFF2
  2605                           intcon2	equ	0xFF1
  2606                           intcon3	equ	0xFF0
  2607                           postinc0	equ	0xFEE
  2608                           fsr0h	equ	0xFEA
  2609                           fsr0l	equ	0xFE9
  2610                           postdec1	equ	0xFE5
  2611                           fsr1h	equ	0xFE2
  2612                           fsr1l	equ	0xFE1
  2613                           indf2	equ	0xFDF
  2614                           postinc2	equ	0xFDE
  2615                           postdec2	equ	0xFDD
  2616                           fsr2h	equ	0xFDA
  2617                           fsr2l	equ	0xFD9
  2618                           status	equ	0xFD8
  2619                           
  2620 ;; *************** function _INT1_APP_ISR *****************
  2621 ;; Defined at:
  2622 ;;		line 14 in file "application.c"
  2623 ;; Parameters:    Size  Location     Type
  2624 ;;		None
  2625 ;; Auto vars:     Size  Location     Type
  2626 ;;		None
  2627 ;; Return value:  Size  Location     Type
  2628 ;;                  1    wreg      void 
  2629 ;; Registers used:
  2630 ;;		wreg, fsr2l, fsr2h, status,2, status,0, prodl, prodh, cstack
  2631 ;; Tracked objects:
  2632 ;;		On entry : 0/0
  2633 ;;		On exit  : 0/0
  2634 ;;		Unchanged: 0/0
  2635 ;; Data sizes:     COMRAM   BANK0   BANK1   BANK2   BANK3   BANK4   BANK5   BANK6   BANK7   BANK8   BANK9  BANK10  BANK1
      +1  BANK12  BANK13  BANK14  BANK15
  2636 ;;      Params:         0       0       0       0       0       0       0       0       0       0       0       0       
      +0       0       0       0       0
  2637 ;;      Locals:         0       0       0       0       0       0       0       0       0       0       0       0       
      +0       0       0       0       0
  2638 ;;      Temps:          0       0       0       0       0       0       0       0       0       0       0       0       
      +0       0       0       0       0
  2639 ;;      Totals:         0       0       0       0       0       0       0       0       0       0       0       0       
      +0       0       0       0       0
  2640 ;;Total ram usage:        0 bytes
  2641 ;; Hardware stack levels used:    1
  2642 ;; Hardware stack levels required when called:    1
  2643 ;; This function calls:
  2644 ;;		_led_toggle
  2645 ;; This function is called by:
  2646 ;;		_INT0_ISR
  2647 ;;		_INT1_ISR
  2648 ;;		_INT2_ISR
  2649 ;; This function uses a non-reentrant model
  2650 ;;
  2651                           
  2652                           	psect	text19
  2653  001704                     __ptext19:
  2654                           	opt stack 0
  2655  001704                     _INT1_APP_ISR:
  2656                           	opt stack 24
  2657                           
  2658                           ;application.c: 15: led_toggle(&led2);
  2659                           
  2660                           ;incstack = 0
  2661  001704  0E45               	movlw	low _led2
  2662  001706  6E47               	movwf	led_toggle@led,c
  2663  001708  0E00               	movlw	high _led2
  2664  00170A  6E48               	movwf	led_toggle@led+1,c
  2665  00170C  ECF5  F009         	call	_led_toggle	;wreg free
  2666  001710  0012               	return		;funcret
  2667  001712                     __end_of_INT1_APP_ISR:
  2668                           	opt stack 0
  2669                           tosu	equ	0xFFF
  2670                           tosh	equ	0xFFE
  2671                           tosl	equ	0xFFD
  2672                           pclatu	equ	0xFFB
  2673                           pclath	equ	0xFFA
  2674                           tblptru	equ	0xFF8
  2675                           tblptrh	equ	0xFF7
  2676                           tblptrl	equ	0xFF6
  2677                           tablat	equ	0xFF5
  2678                           prodh	equ	0xFF4
  2679                           prodl	equ	0xFF3
  2680                           intcon	equ	0xFF2
  2681                           intcon2	equ	0xFF1
  2682                           intcon3	equ	0xFF0
  2683                           postinc0	equ	0xFEE
  2684                           fsr0h	equ	0xFEA
  2685                           fsr0l	equ	0xFE9
  2686                           postdec1	equ	0xFE5
  2687                           fsr1h	equ	0xFE2
  2688                           fsr1l	equ	0xFE1
  2689                           indf2	equ	0xFDF
  2690                           postinc2	equ	0xFDE
  2691                           postdec2	equ	0xFDD
  2692                           fsr2h	equ	0xFDA
  2693                           fsr2l	equ	0xFD9
  2694                           status	equ	0xFD8
  2695                           
  2696 ;; *************** function _INT0_APP_ISR *****************
  2697 ;; Defined at:
  2698 ;;		line 11 in file "application.c"
  2699 ;; Parameters:    Size  Location     Type
  2700 ;;		None
  2701 ;; Auto vars:     Size  Location     Type
  2702 ;;		None
  2703 ;; Return value:  Size  Location     Type
  2704 ;;                  1    wreg      void 
  2705 ;; Registers used:
  2706 ;;		wreg, fsr2l, fsr2h, status,2, status,0, prodl, prodh, cstack
  2707 ;; Tracked objects:
  2708 ;;		On entry : 0/0
  2709 ;;		On exit  : 0/0
  2710 ;;		Unchanged: 0/0
  2711 ;; Data sizes:     COMRAM   BANK0   BANK1   BANK2   BANK3   BANK4   BANK5   BANK6   BANK7   BANK8   BANK9  BANK10  BANK1
      +1  BANK12  BANK13  BANK14  BANK15
  2712 ;;      Params:         0       0       0       0       0       0       0       0       0       0       0       0       
      +0       0       0       0       0
  2713 ;;      Locals:         0       0       0       0       0       0       0       0       0       0       0       0       
      +0       0       0       0       0
  2714 ;;      Temps:          0       0       0       0       0       0       0       0       0       0       0       0       
      +0       0       0       0       0
  2715 ;;      Totals:         0       0       0       0       0       0       0       0       0       0       0       0       
      +0       0       0       0       0
  2716 ;;Total ram usage:        0 bytes
  2717 ;; Hardware stack levels used:    1
  2718 ;; Hardware stack levels required when called:    1
  2719 ;; This function calls:
  2720 ;;		_led_toggle
  2721 ;; This function is called by:
  2722 ;;		_INT0_ISR
  2723 ;;		_INT1_ISR
  2724 ;;		_INT2_ISR
  2725 ;; This function uses a non-reentrant model
  2726 ;;
  2727                           
  2728                           	psect	text20
  2729  001712                     __ptext20:
  2730                           	opt stack 0
  2731  001712                     _INT0_APP_ISR:
  2732                           	opt stack 24
  2733                           
  2734                           ;application.c: 12: led_toggle(&led1);
  2735                           
  2736                           ;incstack = 0
  2737  001712  0E46               	movlw	low _led1
  2738  001714  6E47               	movwf	led_toggle@led,c
  2739  001716  0E00               	movlw	high _led1
  2740  001718  6E48               	movwf	led_toggle@led+1,c
  2741  00171A  ECF5  F009         	call	_led_toggle	;wreg free
  2742  00171E  0012               	return		;funcret
  2743  001720                     __end_of_INT0_APP_ISR:
  2744                           	opt stack 0
  2745                           tosu	equ	0xFFF
  2746                           tosh	equ	0xFFE
  2747                           tosl	equ	0xFFD
  2748                           pclatu	equ	0xFFB
  2749                           pclath	equ	0xFFA
  2750                           tblptru	equ	0xFF8
  2751                           tblptrh	equ	0xFF7
  2752                           tblptrl	equ	0xFF6
  2753                           tablat	equ	0xFF5
  2754                           prodh	equ	0xFF4
  2755                           prodl	equ	0xFF3
  2756                           intcon	equ	0xFF2
  2757                           intcon2	equ	0xFF1
  2758                           intcon3	equ	0xFF0
  2759                           postinc0	equ	0xFEE
  2760                           fsr0h	equ	0xFEA
  2761                           fsr0l	equ	0xFE9
  2762                           postdec1	equ	0xFE5
  2763                           fsr1h	equ	0xFE2
  2764                           fsr1l	equ	0xFE1
  2765                           indf2	equ	0xFDF
  2766                           postinc2	equ	0xFDE
  2767                           postdec2	equ	0xFDD
  2768                           fsr2h	equ	0xFDA
  2769                           fsr2l	equ	0xFD9
  2770                           status	equ	0xFD8
  2771                           
  2772 ;; *************** function _INT2_APP_ISR *****************
  2773 ;; Defined at:
  2774 ;;		line 17 in file "application.c"
  2775 ;; Parameters:    Size  Location     Type
  2776 ;;		None
  2777 ;; Auto vars:     Size  Location     Type
  2778 ;;		None
  2779 ;; Return value:  Size  Location     Type
  2780 ;;                  1    wreg      void 
  2781 ;; Registers used:
  2782 ;;		wreg, fsr2l, fsr2h, status,2, status,0, prodl, prodh, cstack
  2783 ;; Tracked objects:
  2784 ;;		On entry : 0/0
  2785 ;;		On exit  : 0/0
  2786 ;;		Unchanged: 0/0
  2787 ;; Data sizes:     COMRAM   BANK0   BANK1   BANK2   BANK3   BANK4   BANK5   BANK6   BANK7   BANK8   BANK9  BANK10  BANK1
      +1  BANK12  BANK13  BANK14  BANK15
  2788 ;;      Params:         0       0       0       0       0       0       0       0       0       0       0       0       
      +0       0       0       0       0
  2789 ;;      Locals:         0       0       0       0       0       0       0       0       0       0       0       0       
      +0       0       0       0       0
  2790 ;;      Temps:          0       0       0       0       0       0       0       0       0       0       0       0       
      +0       0       0       0       0
  2791 ;;      Totals:         0       0       0       0       0       0       0       0       0       0       0       0       
      +0       0       0       0       0
  2792 ;;Total ram usage:        0 bytes
  2793 ;; Hardware stack levels used:    1
  2794 ;; Hardware stack levels required when called:    1
  2795 ;; This function calls:
  2796 ;;		_led_toggle
  2797 ;; This function is called by:
  2798 ;;		_INT0_ISR
  2799 ;;		_INT1_ISR
  2800 ;;		_INT2_ISR
  2801 ;; This function uses a non-reentrant model
  2802 ;;
  2803                           
  2804                           	psect	text21
  2805  001720                     __ptext21:
  2806                           	opt stack 0
  2807  001720                     _INT2_APP_ISR:
  2808                           	opt stack 24
  2809                           
  2810                           ;application.c: 18: led_toggle(&led3);
  2811                           
  2812                           ;incstack = 0
  2813  001720  0E44               	movlw	low _led3
  2814  001722  6E47               	movwf	led_toggle@led,c
  2815  001724  0E00               	movlw	high _led3
  2816  001726  6E48               	movwf	led_toggle@led+1,c
  2817  001728  ECF5  F009         	call	_led_toggle	;wreg free
  2818  00172C  0012               	return		;funcret
  2819  00172E                     __end_of_INT2_APP_ISR:
  2820                           	opt stack 0
  2821                           tosu	equ	0xFFF
  2822                           tosh	equ	0xFFE
  2823                           tosl	equ	0xFFD
  2824                           pclatu	equ	0xFFB
  2825                           pclath	equ	0xFFA
  2826                           tblptru	equ	0xFF8
  2827                           tblptrh	equ	0xFF7
  2828                           tblptrl	equ	0xFF6
  2829                           tablat	equ	0xFF5
  2830                           prodh	equ	0xFF4
  2831                           prodl	equ	0xFF3
  2832                           intcon	equ	0xFF2
  2833                           intcon2	equ	0xFF1
  2834                           intcon3	equ	0xFF0
  2835                           postinc0	equ	0xFEE
  2836                           fsr0h	equ	0xFEA
  2837                           fsr0l	equ	0xFE9
  2838                           postdec1	equ	0xFE5
  2839                           fsr1h	equ	0xFE2
  2840                           fsr1l	equ	0xFE1
  2841                           indf2	equ	0xFDF
  2842                           postinc2	equ	0xFDE
  2843                           postdec2	equ	0xFDD
  2844                           fsr2h	equ	0xFDA
  2845                           fsr2l	equ	0xFD9
  2846                           status	equ	0xFD8
  2847                           
  2848 ;; *************** function _led_toggle *****************
  2849 ;; Defined at:
  2850 ;;		line 66 in file "ECU_Layer/LED_Driver/ecu_led_prog.c"
  2851 ;; Parameters:    Size  Location     Type
  2852 ;;  led             2    0[COMRAM] PTR const struct .
  2853 ;;		 -> led3(1), led2(1), led1(1), 
  2854 ;; Auto vars:     Size  Location     Type
  2855 ;;  Local_Status    1    7[COMRAM] unsigned char 
  2856 ;; Return value:  Size  Location     Type
  2857 ;;                  1    wreg      unsigned char 
  2858 ;; Registers used:
  2859 ;;		wreg, fsr2l, fsr2h, status,2, status,0, prodl, prodh
  2860 ;; Tracked objects:
  2861 ;;		On entry : 0/0
  2862 ;;		On exit  : 0/0
  2863 ;;		Unchanged: 0/0
  2864 ;; Data sizes:     COMRAM   BANK0   BANK1   BANK2   BANK3   BANK4   BANK5   BANK6   BANK7   BANK8   BANK9  BANK10  BANK1
      +1  BANK12  BANK13  BANK14  BANK15
  2865 ;;      Params:         2       0       0       0       0       0       0       0       0       0       0       0       
      +0       0       0       0       0
  2866 ;;      Locals:         1       0       0       0       0       0       0       0       0       0       0       0       
      +0       0       0       0       0
  2867 ;;      Temps:          5       0       0       0       0       0       0       0       0       0       0       0       
      +0       0       0       0       0
  2868 ;;      Totals:         8       0       0       0       0       0       0       0       0       0       0       0       
      +0       0       0       0       0
  2869 ;;Total ram usage:        8 bytes
  2870 ;; Hardware stack levels used:    1
  2871 ;; This function calls:
  2872 ;;		Nothing
  2873 ;; This function is called by:
  2874 ;;		_INT0_APP_ISR
  2875 ;;		_INT1_APP_ISR
  2876 ;;		_INT2_APP_ISR
  2877 ;; This function uses a non-reentrant model
  2878 ;;
  2879                           
  2880                           	psect	text22
  2881  0013EA                     __ptext22:
  2882                           	opt stack 0
  2883  0013EA                     _led_toggle:
  2884                           	opt stack 24
  2885                           
  2886                           ;ecu_led_prog.c: 67: Std_ReturnType Local_Status=(Std_ReturnType)0x00;
  2887                           
  2888                           ;incstack = 0
  2889  0013EA  0E00               	movlw	0
  2890  0013EC  6E4E               	movwf	led_toggle@Local_Status,c
  2891                           
  2892                           ;ecu_led_prog.c: 68: if((0) == led){
  2893  0013EE  5047               	movf	led_toggle@led,w,c
  2894  0013F0  1048               	iorwf	led_toggle@led+1,w,c
  2895  0013F2  A4D8               	btfss	status,2,c
  2896  0013F4  D003               	goto	i2l2442
  2897                           
  2898                           ;ecu_led_prog.c: 69: Local_Status=(Std_ReturnType)0x00;
  2899  0013F6  0E00               	movlw	0
  2900  0013F8  6E4E               	movwf	led_toggle@Local_Status,c
  2901                           
  2902                           ;ecu_led_prog.c: 70: }else{
  2903  0013FA  0012               	return	
  2904  0013FC                     i2l2442:
  2905                           
  2906                           ;ecu_led_prog.c: 71: (*lat_register[led->port_index] ^= ((uint8)1 << led->pin_num));
  2907  0013FC  C047  FFD9         	movff	led_toggle@led,fsr2l
  2908  001400  C048  FFDA         	movff	led_toggle@led+1,fsr2h
  2909  001404  38DF               	swapf	indf2,w,c
  2910  001406  0B07               	andlw	7
  2911  001408  6E49               	movwf	??_led_toggle& (0+255),c
  2912  00140A  0E01               	movlw	1
  2913  00140C  6E4A               	movwf	(??_led_toggle+1)& (0+255),c
  2914  00140E  2A49               	incf	??_led_toggle,f,c
  2915  001410  D002               	goto	i2u128_44
  2916  001412                     i2u128_45:
  2917  001412  90D8               	bcf	status,0,c
  2918  001414  364A               	rlcf	??_led_toggle+1,f,c
  2919  001416                     i2u128_44:
  2920  001416  2E49               	decfsz	??_led_toggle,f,c
  2921  001418  D7FC               	goto	i2u128_45
  2922  00141A  C047  FFD9         	movff	led_toggle@led,fsr2l
  2923  00141E  C048  FFDA         	movff	led_toggle@led+1,fsr2h
  2924  001422  50DF               	movf	indf2,w,c
  2925  001424  0B0F               	andlw	15
  2926  001426  6E4B               	movwf	(??_led_toggle+2)& (0+255),c
  2927  001428  504B               	movf	??_led_toggle+2,w,c
  2928  00142A  0D02               	mullw	2
  2929  00142C  0E11               	movlw	low _lat_register
  2930  00142E  24F3               	addwf	prodl,w,c
  2931  001430  6ED9               	movwf	fsr2l,c
  2932  001432  0E00               	movlw	high _lat_register
  2933  001434  20F4               	addwfc	prodh,w,c
  2934  001436  6EDA               	movwf	fsr2h,c
  2935  001438  CFDE F04C          	movff	postinc2,??_led_toggle+3
  2936  00143C  CFDD F04D          	movff	postdec2,??_led_toggle+4
  2937  001440  C04C  FFD9         	movff	??_led_toggle+3,fsr2l
  2938  001444  C04D  FFDA         	movff	??_led_toggle+4,fsr2h
  2939  001448  504A               	movf	??_led_toggle+1,w,c
  2940  00144A  1ADF               	xorwf	indf2,f,c
  2941                           
  2942                           ;ecu_led_prog.c: 72: Local_Status=(Std_ReturnType)0x01;
  2943  00144C  0E01               	movlw	1
  2944  00144E  6E4E               	movwf	led_toggle@Local_Status,c
  2945  001450  0012               	return	
  2946  001452                     __end_of_led_toggle:
  2947                           	opt stack 0
  2948                           tosu	equ	0xFFF
  2949                           tosh	equ	0xFFE
  2950                           tosl	equ	0xFFD
  2951                           pclatu	equ	0xFFB
  2952                           pclath	equ	0xFFA
  2953                           tblptru	equ	0xFF8
  2954                           tblptrh	equ	0xFF7
  2955                           tblptrl	equ	0xFF6
  2956                           tablat	equ	0xFF5
  2957                           prodh	equ	0xFF4
  2958                           prodl	equ	0xFF3
  2959                           intcon	equ	0xFF2
  2960                           intcon2	equ	0xFF1
  2961                           intcon3	equ	0xFF0
  2962                           postinc0	equ	0xFEE
  2963                           fsr0h	equ	0xFEA
  2964                           fsr0l	equ	0xFE9
  2965                           postdec1	equ	0xFE5
  2966                           fsr1h	equ	0xFE2
  2967                           fsr1l	equ	0xFE1
  2968                           indf2	equ	0xFDF
  2969                           postinc2	equ	0xFDE
  2970                           postdec2	equ	0xFDD
  2971                           fsr2h	equ	0xFDA
  2972                           fsr2l	equ	0xFD9
  2973                           status	equ	0xFD8
  2974                           tosu	equ	0xFFF
  2975                           tosh	equ	0xFFE
  2976                           tosl	equ	0xFFD
  2977                           pclatu	equ	0xFFB
  2978                           pclath	equ	0xFFA
  2979                           tblptru	equ	0xFF8
  2980                           tblptrh	equ	0xFF7
  2981                           tblptrl	equ	0xFF6
  2982                           tablat	equ	0xFF5
  2983                           prodh	equ	0xFF4
  2984                           prodl	equ	0xFF3
  2985                           intcon	equ	0xFF2
  2986                           intcon2	equ	0xFF1
  2987                           intcon3	equ	0xFF0
  2988                           postinc0	equ	0xFEE
  2989                           fsr0h	equ	0xFEA
  2990                           fsr0l	equ	0xFE9
  2991                           postdec1	equ	0xFE5
  2992                           fsr1h	equ	0xFE2
  2993                           fsr1l	equ	0xFE1
  2994                           indf2	equ	0xFDF
  2995                           postinc2	equ	0xFDE
  2996                           postdec2	equ	0xFDD
  2997                           fsr2h	equ	0xFDA
  2998                           fsr2l	equ	0xFD9
  2999                           status	equ	0xFD8
  3000                           
  3001                           	psect	text23
  3002  000000                     __ptext23:
  3003                           	opt stack 0
  3004                           tosu	equ	0xFFF
  3005                           tosh	equ	0xFFE
  3006                           tosl	equ	0xFFD
  3007                           pclatu	equ	0xFFB
  3008                           pclath	equ	0xFFA
  3009                           tblptru	equ	0xFF8
  3010                           tblptrh	equ	0xFF7
  3011                           tblptrl	equ	0xFF6
  3012                           tablat	equ	0xFF5
  3013                           prodh	equ	0xFF4
  3014                           prodl	equ	0xFF3
  3015                           intcon	equ	0xFF2
  3016                           intcon2	equ	0xFF1
  3017                           intcon3	equ	0xFF0
  3018                           postinc0	equ	0xFEE
  3019                           fsr0h	equ	0xFEA
  3020                           fsr0l	equ	0xFE9
  3021                           postdec1	equ	0xFE5
  3022                           fsr1h	equ	0xFE2
  3023                           fsr1l	equ	0xFE1
  3024                           indf2	equ	0xFDF
  3025                           postinc2	equ	0xFDE
  3026                           postdec2	equ	0xFDD
  3027                           fsr2h	equ	0xFDA
  3028                           fsr2l	equ	0xFD9
  3029                           status	equ	0xFD8
  3030                           
  3031                           	psect	rparam
  3032  0000                     tosu	equ	0xFFF
  3033                           tosh	equ	0xFFE
  3034                           tosl	equ	0xFFD
  3035                           pclatu	equ	0xFFB
  3036                           pclath	equ	0xFFA
  3037                           tblptru	equ	0xFF8
  3038                           tblptrh	equ	0xFF7
  3039                           tblptrl	equ	0xFF6
  3040                           tablat	equ	0xFF5
  3041                           prodh	equ	0xFF4
  3042                           prodl	equ	0xFF3
  3043                           intcon	equ	0xFF2
  3044                           intcon2	equ	0xFF1
  3045                           intcon3	equ	0xFF0
  3046                           postinc0	equ	0xFEE
  3047                           fsr0h	equ	0xFEA
  3048                           fsr0l	equ	0xFE9
  3049                           postdec1	equ	0xFE5
  3050                           fsr1h	equ	0xFE2
  3051                           fsr1l	equ	0xFE1
  3052                           indf2	equ	0xFDF
  3053                           postinc2	equ	0xFDE
  3054                           postdec2	equ	0xFDD
  3055                           fsr2h	equ	0xFDA
  3056                           fsr2l	equ	0xFD9
  3057                           status	equ	0xFD8
  3058                           
  3059                           	psect	temp
  3060  000069                     btemp:
  3061                           	opt stack 0
  3062  000069                     	ds	1
  3063  0000                     int$flags	set	btemp
  3064                           tosu	equ	0xFFF
  3065                           tosh	equ	0xFFE
  3066                           tosl	equ	0xFFD
  3067                           pclatu	equ	0xFFB
  3068                           pclath	equ	0xFFA
  3069                           tblptru	equ	0xFF8
  3070                           tblptrh	equ	0xFF7
  3071                           tblptrl	equ	0xFF6
  3072                           tablat	equ	0xFF5
  3073                           prodh	equ	0xFF4
  3074                           prodl	equ	0xFF3
  3075                           intcon	equ	0xFF2
  3076                           intcon2	equ	0xFF1
  3077                           intcon3	equ	0xFF0
  3078                           postinc0	equ	0xFEE
  3079                           fsr0h	equ	0xFEA
  3080                           fsr0l	equ	0xFE9
  3081                           postdec1	equ	0xFE5
  3082                           fsr1h	equ	0xFE2
  3083                           fsr1l	equ	0xFE1
  3084                           indf2	equ	0xFDF
  3085                           postinc2	equ	0xFDE
  3086                           postdec2	equ	0xFDD
  3087                           fsr2h	equ	0xFDA
  3088                           fsr2l	equ	0xFD9
  3089                           status	equ	0xFD8


Data Sizes:
    Strings     0
    Constant    16
    Data        70
    BSS         6
    Persistent  0
    Stack       0

Auto Spaces:
    Space          Size  Autos    Used
    COMRAM          126     28     104
    BANK0           128      9       9
    BANK1           256      0       0
    BANK2           256      0       0
    BANK3           256      0       0
    BANK4           256      0       0
    BANK5           256      0       0
    BANK6           256      0       0
    BANK7           256      0       0
    BANK8           256      0       0
    BANK9           256      0       0
    BANK10          256      0       0
    BANK11          256      0       0
    BANK12          256      0       0
    BANK13          256      0       0
    BANK14          256      0       0
    BANK15          128      0       0

Pointer List with Targets:

    Interrupt_INTx_SetInterruptHandler@int_obj.EXT_InterruptHandler	PTR FTN()void  size(2) Largest target is 1
		 -> INT2_APP_ISR(), INT1_APP_ISR(), INT0_APP_ISR(), 

    Interrupt_INTx_SetInterruptHandler@int_obj	PTR const struct . size(2) Largest target is 7
		 -> INT2_obj(COMRAM[7]), INT1_obj(COMRAM[7]), INT0_obj(COMRAM[7]), 

    INT2_SetInterruptHandler@InterruptHandler	PTR FTN()void  size(2) Largest target is 1
		 -> INT2_APP_ISR(), INT1_APP_ISR(), INT0_APP_ISR(), 

    INT1_SetInterruptHandler@InterruptHandler	PTR FTN()void  size(2) Largest target is 1
		 -> INT2_APP_ISR(), INT1_APP_ISR(), INT0_APP_ISR(), 

    INT0_SetInterruptHandler@InterruptHandler	PTR FTN()void  size(2) Largest target is 1
		 -> INT2_APP_ISR(), INT1_APP_ISR(), INT0_APP_ISR(), 

    Interrupt_INTx_Clear_Flag@int_obj.EXT_InterruptHandler	PTR FTN()void  size(2) Largest target is 1
		 -> INT2_APP_ISR(), INT1_APP_ISR(), INT0_APP_ISR(), 

    Interrupt_INTx_Clear_Flag@int_obj	PTR const struct . size(2) Largest target is 7
		 -> INT2_obj(COMRAM[7]), INT1_obj(COMRAM[7]), INT0_obj(COMRAM[7]), 

    Interrupt_INTx_Pin_Init@int_obj.EXT_InterruptHandler	PTR FTN()void  size(2) Largest target is 1
		 -> INT2_APP_ISR(), INT1_APP_ISR(), INT0_APP_ISR(), 

    Interrupt_INTx_Pin_Init@int_obj	PTR const struct . size(2) Largest target is 7
		 -> INT2_obj(COMRAM[7]), INT1_obj(COMRAM[7]), INT0_obj(COMRAM[7]), 

    Interrupt_INTx_Edge_Init@int_obj.EXT_InterruptHandler	PTR FTN()void  size(2) Largest target is 1
		 -> INT2_APP_ISR(), INT1_APP_ISR(), INT0_APP_ISR(), 

    Interrupt_INTx_Edge_Init@int_obj	PTR const struct . size(2) Largest target is 7
		 -> INT2_obj(COMRAM[7]), INT1_obj(COMRAM[7]), INT0_obj(COMRAM[7]), 

    Interrupt_INTx_Disable@int_obj.EXT_InterruptHandler	PTR FTN()void  size(2) Largest target is 1
		 -> INT2_APP_ISR(), INT1_APP_ISR(), INT0_APP_ISR(), 

    Interrupt_INTx_Disable@int_obj	PTR const struct . size(2) Largest target is 7
		 -> INT2_obj(COMRAM[7]), INT1_obj(COMRAM[7]), INT0_obj(COMRAM[7]), 

    Interrupt_INTx_Enable@int_obj.EXT_InterruptHandler	PTR FTN()void  size(2) Largest target is 1
		 -> INT2_APP_ISR(), INT1_APP_ISR(), INT0_APP_ISR(), 

    Interrupt_INTx_Enable@int_obj	PTR const struct . size(2) Largest target is 7
		 -> INT2_obj(COMRAM[7]), INT1_obj(COMRAM[7]), INT0_obj(COMRAM[7]), 

    INT2_InterruptHandler	PTR FTN()void  size(2) Largest target is 1
		 -> Absolute function(), INT2_APP_ISR(), INT1_APP_ISR(), INT0_APP_ISR(), 

    INT1_InterruptHandler	PTR FTN()void  size(2) Largest target is 1
		 -> Absolute function(), INT2_APP_ISR(), INT1_APP_ISR(), INT0_APP_ISR(), 

    INT0_InterruptHandler	PTR FTN()void  size(2) Largest target is 1
		 -> Absolute function(), INT2_APP_ISR(), INT1_APP_ISR(), INT0_APP_ISR(), 

    Interrupt_INTx_Init@int_obj	PTR const struct . size(2) Largest target is 7
		 -> INT2_obj(COMRAM[7]), INT1_obj(COMRAM[7]), INT0_obj(COMRAM[7]), 

    INT2_obj.EXT_InterruptHandler	PTR FTN()void  size(2) Largest target is 1
		 -> INT2_APP_ISR(), INT1_APP_ISR(), INT0_APP_ISR(), 

    INT1_obj.EXT_InterruptHandler	PTR FTN()void  size(2) Largest target is 1
		 -> INT2_APP_ISR(), INT1_APP_ISR(), INT0_APP_ISR(), 

    S684$EXT_InterruptHandler	PTR FTN()void  size(2) Largest target is 1
		 -> INT2_APP_ISR(), INT1_APP_ISR(), INT0_APP_ISR(), 

    INT0_obj.EXT_InterruptHandler	PTR FTN()void  size(2) Largest target is 1
		 -> INT2_APP_ISR(), INT1_APP_ISR(), INT0_APP_ISR(), 

    gpio_pin_direction_intialize@_pin_config	PTR const struct . size(2) Largest target is 7
		 -> INT2_obj(COMRAM[7]), INT1_obj(COMRAM[7]), INT0_obj(COMRAM[7]), 

    led_toggle@led	PTR const struct . size(2) Largest target is 1
		 -> led3(COMRAM[1]), led2(COMRAM[1]), led1(COMRAM[1]), 

    led_initizlize@led	PTR const struct . size(2) Largest target is 1
		 -> led3(COMRAM[1]), led2(COMRAM[1]), led1(COMRAM[1]), 

    lat_register	PTR volatile unsigned char [5] size(2) Largest target is 1
		 -> LATE(SFR[1]), LATD(SFR[1]), LATC(SFR[1]), LATB(SFR[1]), 
		 -> LATA(SFR[1]), 

    port_register	PTR volatile unsigned char [5] size(2) Largest target is 1
		 -> PORTE(SFR[1]), PORTD(SFR[1]), PORTC(SFR[1]), PORTB(SFR[1]), 
		 -> PORTA(SFR[1]), 

    tris_register	PTR volatile unsigned char [5] size(2) Largest target is 1
		 -> TRISE(SFR[1]), TRISD(SFR[1]), TRISC(SFR[1]), TRISB(SFR[1]), 
		 -> TRISA(SFR[1]), 


Critical Paths under _main in COMRAM

    _functionInitialize->_ecu_layer_initialize
    _ecu_layer_initialize->_led_initizlize
    _Interrupt_INTx_Init->_Interrupt_INTx_Pin_Init
    _Interrupt_INTx_Init->_Interrupt_INTx_SetInterruptHandler
    _Interrupt_INTx_SetInterruptHandler->_INT0_SetInterruptHandler
    _Interrupt_INTx_SetInterruptHandler->_INT1_SetInterruptHandler
    _Interrupt_INTx_SetInterruptHandler->_INT2_SetInterruptHandler
    _Interrupt_INTx_Pin_Init->_gpio_pin_direction_intialize

Critical Paths under _InterruptManager in COMRAM

    _INT2_APP_ISR->_led_toggle
    _INT1_APP_ISR->_led_toggle
    _INT0_APP_ISR->_led_toggle

Critical Paths under _main in BANK0

    _main->_Interrupt_INTx_Init
    _ecu_layer_initialize->_led_initizlize
    _Interrupt_INTx_Pin_Init->_gpio_pin_direction_intialize

Critical Paths under _InterruptManager in BANK0

    None.

Critical Paths under _main in BANK1

    None.

Critical Paths under _InterruptManager in BANK1

    None.

Critical Paths under _main in BANK2

    None.

Critical Paths under _InterruptManager in BANK2

    None.

Critical Paths under _main in BANK3

    None.

Critical Paths under _InterruptManager in BANK3

    None.

Critical Paths under _main in BANK4

    None.

Critical Paths under _InterruptManager in BANK4

    None.

Critical Paths under _main in BANK5

    None.

Critical Paths under _InterruptManager in BANK5

    None.

Critical Paths under _main in BANK6

    None.

Critical Paths under _InterruptManager in BANK6

    None.

Critical Paths under _main in BANK7

    None.

Critical Paths under _InterruptManager in BANK7

    None.

Critical Paths under _main in BANK8

    None.

Critical Paths under _InterruptManager in BANK8

    None.

Critical Paths under _main in BANK9

    None.

Critical Paths under _InterruptManager in BANK9

    None.

Critical Paths under _main in BANK10

    None.

Critical Paths under _InterruptManager in BANK10

    None.

Critical Paths under _main in BANK11

    None.

Critical Paths under _InterruptManager in BANK11

    None.

Critical Paths under _main in BANK12

    None.

Critical Paths under _InterruptManager in BANK12

    None.

Critical Paths under _main in BANK13

    None.

Critical Paths under _InterruptManager in BANK13

    None.

Critical Paths under _main in BANK14

    None.

Critical Paths under _InterruptManager in BANK14

    None.

Critical Paths under _main in BANK15

    None.

Critical Paths under _InterruptManager in BANK15

    None.

Call Graph Tables:

 ---------------------------------------------------------------------------------
 (Depth) Function   	        Calls       Base Space   Used Autos Params    Refs
 ---------------------------------------------------------------------------------
 (0) _main                                                 0     0      0    3719
                _Interrupt_INTx_Init
                 _functionInitialize
 ---------------------------------------------------------------------------------
 (1) _functionInitialize                                   0     0      0     383
               _ecu_layer_initialize
 ---------------------------------------------------------------------------------
 (2) _ecu_layer_initialize                                 1     1      0     383
                                             25 COMRAM     1     1      0
                     _led_initizlize
 ---------------------------------------------------------------------------------
 (3) _led_initizlize                                       9     7      2     364
                                             22 COMRAM     3     1      2
                                              0 BANK0      6     6      0
 ---------------------------------------------------------------------------------
 (1) _Interrupt_INTx_Init                                  3     1      2    3336
                                              6 BANK0      3     1      2
          _Interrupt_INTx_Clear_Flag
             _Interrupt_INTx_Disable
           _Interrupt_INTx_Edge_Init
              _Interrupt_INTx_Enable
            _Interrupt_INTx_Pin_Init
 _Interrupt_INTx_SetInterruptHandler
 ---------------------------------------------------------------------------------
 (2) _Interrupt_INTx_SetInterruptHandler                   3     1      2     818
                                             25 COMRAM     3     1      2
           _INT0_SetInterruptHandler
           _INT1_SetInterruptHandler
           _INT2_SetInterruptHandler
 ---------------------------------------------------------------------------------
 (3) _INT2_SetInterruptHandler                             3     1      2     179
                                             22 COMRAM     3     1      2
 ---------------------------------------------------------------------------------
 (3) _INT1_SetInterruptHandler                             3     1      2     179
                                             22 COMRAM     3     1      2
 ---------------------------------------------------------------------------------
 (3) _INT0_SetInterruptHandler                             3     1      2     179
                                             22 COMRAM     3     1      2
 ---------------------------------------------------------------------------------
 (2) _Interrupt_INTx_Pin_Init                              3     1      2    1024
                                             25 COMRAM     3     1      2
       _gpio_pin_direction_intialize
 ---------------------------------------------------------------------------------
 (3) _gpio_pin_direction_intialize                         9     7      2     845
                                             22 COMRAM     3     1      2
                                              0 BANK0      6     6      0
 ---------------------------------------------------------------------------------
 (2) _Interrupt_INTx_Enable                                3     1      2     188
                                             22 COMRAM     3     1      2
 ---------------------------------------------------------------------------------
 (2) _Interrupt_INTx_Edge_Init                             4     2      2     374
                                             22 COMRAM     4     2      2
 ---------------------------------------------------------------------------------
 (2) _Interrupt_INTx_Disable                               3     1      2     265
                                             22 COMRAM     3     1      2
 ---------------------------------------------------------------------------------
 (2) _Interrupt_INTx_Clear_Flag                            3     1      2     188
                                             22 COMRAM     3     1      2
 ---------------------------------------------------------------------------------
 Estimated maximum stack depth 3
 ---------------------------------------------------------------------------------
 (Depth) Function   	        Calls       Base Space   Used Autos Params    Refs
 ---------------------------------------------------------------------------------
 (4) _InterruptManager                                    14    14      0    2403
                                              8 COMRAM    14    14      0
                           _INT0_ISR
                           _INT1_ISR
                           _INT2_ISR
 ---------------------------------------------------------------------------------
 (5) _INT2_ISR                                             0     0      0     801
                   Absolute function *
                       _INT0_APP_ISR *
                       _INT1_APP_ISR *
                       _INT2_APP_ISR *
 ---------------------------------------------------------------------------------
 (5) _INT1_ISR                                             0     0      0     801
                   Absolute function *
                       _INT0_APP_ISR *
                       _INT1_APP_ISR *
                       _INT2_APP_ISR *
 ---------------------------------------------------------------------------------
 (5) _INT0_ISR                                             0     0      0     801
                   Absolute function *
                       _INT0_APP_ISR *
                       _INT1_APP_ISR *
                       _INT2_APP_ISR *
 ---------------------------------------------------------------------------------
 (6) _INT2_APP_ISR                                         0     0      0     267
                         _led_toggle
 ---------------------------------------------------------------------------------
 (6) _INT1_APP_ISR                                         0     0      0     267
                         _led_toggle
 ---------------------------------------------------------------------------------
 (6) _INT0_APP_ISR                                         0     0      0     267
                         _led_toggle
 ---------------------------------------------------------------------------------
 (7) _led_toggle                                           8     6      2     267
                                              0 COMRAM     8     6      2
 ---------------------------------------------------------------------------------
 (6) Absolute function(Fake)                               0     0      0       0
 ---------------------------------------------------------------------------------
 Estimated maximum stack depth 7
 ---------------------------------------------------------------------------------

 Call Graph Graphs:

 _main (ROOT)
   _Interrupt_INTx_Init
     _Interrupt_INTx_Clear_Flag
     _Interrupt_INTx_Disable
     _Interrupt_INTx_Edge_Init
     _Interrupt_INTx_Enable
     _Interrupt_INTx_Pin_Init
       _gpio_pin_direction_intialize
     _Interrupt_INTx_SetInterruptHandler
       _INT0_SetInterruptHandler
       _INT1_SetInterruptHandler
       _INT2_SetInterruptHandler
   _functionInitialize
     _ecu_layer_initialize
       _led_initizlize

 _InterruptManager (ROOT)
   _INT0_ISR
     Absolute function(Fake) *
     _INT0_APP_ISR *
       _led_toggle
     _INT1_APP_ISR *
       _led_toggle
     _INT2_APP_ISR *
       _led_toggle
   _INT1_ISR
     Absolute function(Fake) *
     _INT0_APP_ISR *
       _led_toggle
     _INT1_APP_ISR *
       _led_toggle
     _INT2_APP_ISR *
       _led_toggle
   _INT2_ISR
     Absolute function(Fake) *
     _INT0_APP_ISR *
       _led_toggle
     _INT1_APP_ISR *
       _led_toggle
     _INT2_APP_ISR *
       _led_toggle

 Address spaces:
Name               Size   Autos  Total    Cost      Usage
BIGRAM             F7F      0       0      37        0.0%
EEDATA             400      0       0       0        0.0%
BITBANK14          100      0       0      32        0.0%
BANK14             100      0       0      33        0.0%
BITBANK13          100      0       0      30        0.0%
BANK13             100      0       0      31        0.0%
BITBANK12          100      0       0      28        0.0%
BANK12             100      0       0      29        0.0%
BITBANK11          100      0       0      26        0.0%
BANK11             100      0       0      27        0.0%
BITBANK10          100      0       0      24        0.0%
BANK10             100      0       0      25        0.0%
BITBANK9           100      0       0      22        0.0%
BANK9              100      0       0      23        0.0%
BITBANK8           100      0       0      20        0.0%
BANK8              100      0       0      21        0.0%
BITBANK7           100      0       0      18        0.0%
BANK7              100      0       0      19        0.0%
BITBANK6           100      0       0      16        0.0%
BANK6              100      0       0      17        0.0%
BITBANK5           100      0       0      14        0.0%
BANK5              100      0       0      15        0.0%
BITBANK4           100      0       0      12        0.0%
BANK4              100      0       0      13        0.0%
BITBANK3           100      0       0      10        0.0%
BANK3              100      0       0      11        0.0%
BITBANK2           100      0       0       8        0.0%
BANK2              100      0       0       9        0.0%
BITBANK1           100      0       0       6        0.0%
BANK1              100      0       0       7        0.0%
BITBANK15           80      0       0      35        0.0%
BANK15              80      0       0      36        0.0%
BITBANK0            80      0       0       4        0.0%
BANK0               80      9       9       5        7.0%
BITCOMRAM           7E      0       0       0        0.0%
COMRAM              7E     1C      68       1       82.5%
BITSFR               0      0       0     200        0.0%
SFR                  0      0       0     200        0.0%
STACK                0      0       0       2        0.0%
NULL                 0      0       0       0        0.0%
ABS                  0      0      71      34        0.0%
DATA                 0      0      71       3        0.0%
CODE                 0      0       0       0        0.0%


Microchip Technology PIC18 Macro Assembler V1.41 build -162212810 
Symbol Table                                                                                   Tue Oct 03 22:29:06 2023

                         ??_InterruptManager 004F                               _led_initizlize 1270  
                                __CFG_BORV$1 000000                                 __CFG_CP0$OFF 000000  
                               __CFG_CP1$OFF 000000                                 __CFG_CP2$OFF 000000  
                               __CFG_CP3$OFF 000000                                  __CFG_OSC$HS 000000  
                                        l637 15EC                                          l832 1500  
                                        l834 1508                                          l835 150C  
                                        l782 1460                                          l784 146C  
                                        l793 14B6                                          l785 1474  
                                        l795 14BE                                          l796 14C2  
                               __CFG_CPB$OFF 000000                                 __CFG_CPD$OFF 000000  
                 ??_INT0_SetInterruptHandler 005F              __size_of_Interrupt_INTx_Disable 004A  
                              ?_INT0_APP_ISR 0047                                          prod 000FF3  
                                        tosl 000FFD                                ?_INT1_APP_ISR 0047  
                              ?_INT2_APP_ISR 0047                                 __CFG_LVP$OFF 000000  
                               __CFG_WDT$OFF 000000                                         l3000 162E  
                                       l3012 137C                                         l3020 13C4  
                                       l3014 1392                                         l3022 13E6  
                                       l3040 1482                                         l3016 13A8  
                                       l3042 14A4                                         l3018 13BE  
                                       l3036 147A                                         l3038 147E  
                                       l3054 130C                                         l2920 14C4  
                                       l2832 1088                                         l2840 1114  
                                       l2922 14C8                                         l2834 10F2  
                                       l2850 1280                                         l2940 150E  
                                       l2924 14CC                                         l2828 1022  
                                       l2942 1512                                         l2926 14EE  
                                       l2838 10F6                                         l2944 1516  
                                       l2960 113C                                         l2864 1694  
                                       l2946 1538                                         l2970 116C  
                                       l2980 1198                                         l2956 1126  
                                       l2892 1654                                         l2966 1156  
                                       l2990 11D4                                         l2878 1674  
                                       l2984 11AA                                         l2976 1182  
                                       l2986 11AE                                         l2988 11B2  
                                       _LATA 000F89                                         _LATB 000F8A  
                                       _LATC 000F8B                                         _LATD 000F8C  
                                       _LATE 000F8D                                         u1770 1106  
                                       u1754 1044                                         u1755 103E  
                                       u1764 10AA                                         u1765 10A4  
                                       u1776 1108                                         u1794 12A2  
                                       u1795 129C                                         _led1 0046  
                                       _led2 0045                                         _led3 0044  
                                       _main 15B8                                         fsr0h 000FEA  
                                       fsr1h 000FE2                                         fsr2h 000FDA  
                                       fsr0l 000FE9                                         indf2 000FDF  
                                       fsr1l 000FE1                                         fsr2l 000FD9  
                                       btemp 0069            __size_of_INT2_SetInterruptHandler 0020  
                  ?_INT2_SetInterruptHandler 005D                                         prodh 000FF4  
                                       prodl 000FF3                                         start 000E  
                              __CFG_IESO$OFF 000000                       __end_of_led_initizlize 12F2  
                              __CFG_MCLRE$ON 000000                                 ___param_bank 000000  
           __size_of_Interrupt_INTx_Pin_Init 0026                             __end_of_INT0_ISR 1704  
                           __end_of_INT1_ISR 16E4                             __end_of_INT2_ISR 16C4  
          __size_of_Interrupt_INTx_Edge_Init 00C0                    ?_Interrupt_INTx_Edge_Init 005D  
                                      ?_main 0047                               ??_INT0_APP_ISR 004F  
                                      i2l912 121E                                        i2l914 122A  
                                      i2l918 1234                                        _PORTA 000F80  
                                      _PORTB 000F81                                        _PORTC 000F82  
                                      _PORTD 000F83                                        _PORTE 000F84  
                             ??_INT1_APP_ISR 004F                                        _TRISA 000F92  
                                      _TRISB 000F93                                        _TRISC 000F94  
                                      _TRISD 000F95                                        _TRISE 000F96  
                              __CFG_PWRT$OFF 000000                                __CFG_WRT0$OFF 000000  
                              __CFG_WRT1$OFF 000000                                __CFG_WRT2$OFF 000000  
                              __CFG_WRT3$OFF 000000                               ??_INT2_APP_ISR 004F  
                             __CFG_EBTR0$OFF 000000                               __CFG_FCMEN$OFF 000000  
                             __CFG_EBTR1$OFF 000000                               __CFG_EBTR2$OFF 000000  
                             __CFG_EBTR3$OFF 000000                                __CFG_WRTB$OFF 000000  
                              __CFG_WRTC$OFF 000000                                __CFG_WRTD$OFF 000000  
                             __CFG_EBTRB$OFF 000000                     Interrupt_INTx_Enable@ret 005F  
                   _INT1_SetInterruptHandler 1664                               __CFG_BOREN$OFF 000000  
                                      pclath 000FFA                                        tablat 000FF5  
                                      status 000FD8                       _Interrupt_INTx_Disable 14A8  
                            ?_led_initizlize 005D    Interrupt_INTx_SetInterruptHandler@int_obj 0060  
                            __initialization 1582                                 __end_of_main 15EE  
                INT1_SetInterruptHandler@ret 005F                                       ??_main 0063  
                              __activetblptr 000003                      ecu_layer_initialize@ret 0060  
                                     i2l2442 13FC                 Interrupt_INTx_Enable@int_obj 005D  
                 ?_Interrupt_INTx_Clear_Flag 005D                                _tris_register 0025  
                __size_of_functionInitialize 0006                               __CFG_XINST$OFF 000000  
                             __CFG_STVREN$ON 000000               __size_of_Interrupt_INTx_Enable 0056  
              __end_of_Interrupt_INTx_Enable 14A8      gpio_pin_direction_intialize@_pin_config 005D  
                               __pdataCOMRAM 0001                                 __mediumconst 0000  
                                     tblptrh 000FF7                                       tblptrl 000FF6  
                                     tblptru 000FF8     INT2_SetInterruptHandler@InterruptHandler 005D  
   INT1_SetInterruptHandler@InterruptHandler 005D     INT0_SetInterruptHandler@InterruptHandler 005D  
                                 __accesstop 0080                      __end_of__initialization 15AE  
                                  ?_INT0_ISR 0047                              __CFG_PBADEN$OFF 000000  
                                  ?_INT1_ISR 0047                                    ?_INT2_ISR 0047  
                              ___rparam_used 000001            __end_of_Interrupt_INTx_Clear_Flag 153C  
                       __end_of_INT0_APP_ISR 1720                         __end_of_INT1_APP_ISR 1712  
                    _Interrupt_INTx_Pin_Init 161E                         __end_of_INT2_APP_ISR 172E  
                             __pcstackCOMRAM 0047                    __size_of_InterruptManager 1268  
           __end_of_INT2_SetInterruptHandler 1664                  __end_of_Interrupt_INTx_Init 136E  
                      _INT0_InterruptHandler 0067                                   ??_INT0_ISR 004F  
                                 ??_INT1_ISR 004F                                   ??_INT2_ISR 004F  
              __size_of_ecu_layer_initialize 0030             __end_of_Interrupt_INTx_Edge_Init 11D8  
                              led_toggle@led 0047   __end_of_Interrupt_INTx_SetInterruptHandler 13EA  
__size_of_Interrupt_INTx_SetInterruptHandler 007C         ??_Interrupt_INTx_SetInterruptHandler 0062  
        ?_Interrupt_INTx_SetInterruptHandler 0060           _Interrupt_INTx_SetInterruptHandler 136E  
                     led_toggle@Local_Status 004E                   ??_INT1_SetInterruptHandler 005F  
                          led_initizlize@led 005D                                   _btn_values 1001  
                    ?_Interrupt_INTx_Disable 005D                                   _led_toggle 13EA  
                           ??_led_initizlize 0080            __size_of_INT0_SetInterruptHandler 0020  
                  ??_Interrupt_INTx_Pin_Init 0062                    ?_INT0_SetInterruptHandler 005D  
                                    __Hparam 0000                                      __Lparam 0000  
                               __psmallconst 1000                                      __pcinit 1582  
                                    __ramtop 1000                                      __ptext0 15B8  
                                    __ptext1 172E                                      __ptext2 15EE  
                                    __ptext3 1270                                      __ptext4 12F2  
                                    __ptext5 136E                                      __ptext6 1644  
                                    __ptext7 1664                                      __ptext8 1684  
                                    __ptext9 161E                                      _keypad1 0001  
             __end_of_Interrupt_INTx_Disable 14F2                               __pintcode_body 11D8  
                       end_of_initialization 15AE                        __size_of_INT0_APP_ISR 000E  
                   _INT2_SetInterruptHandler 1644                        __size_of_INT1_APP_ISR 000E  
                                    int_func 11D8                        __size_of_INT2_APP_ISR 000E  
                ??_Interrupt_INTx_Clear_Flag 005F                                      postdec1 000FE5  
                                    postdec2 000FDD                     _Interrupt_INTx_Edge_Init 1118  
                                    postinc0 000FEE                                      postinc2 000FDE  
                      _INT1_InterruptHandler 0065                             _InterruptManager 0008  
                INT2_SetInterruptHandler@ret 005F                                 _INT0_APP_ISR 1712  
       __end_of_gpio_pin_direction_intialize 1118        __size_of_gpio_pin_direction_intialize 0106  
               _gpio_pin_direction_intialize 1012                                 _INT1_APP_ISR 1704  
                               _INT2_APP_ISR 1720                                  ?_led_toggle 0047  
                Interrupt_INTx_Edge_Init@ret 0060                   __end_of_functionInitialize 1734  
                          __size_of_INT0_ISR 0020                            __size_of_INT1_ISR 0020  
                          __size_of_INT2_ISR 0020                       Interrupt_INTx_Init@ret 0088  
                              __pidataCOMRAM 153C                Interrupt_INTx_Disable@int_obj 005D  
                  _Interrupt_INTx_Clear_Flag 14F2                        _Interrupt_INTx_Enable 1452  
                        start_initialization 1582                ?_gpio_pin_direction_intialize 005D  
                               _lat_register 0011                   led_initizlize@Local_Status 005F  
                           __CFG_LPT1OSC$OFF 000000                 __end_of_ecu_layer_initialize 161E  
                        __size_of_led_toggle 0068                                  __pbssCOMRAM 0063  
           __end_of_INT0_SetInterruptHandler 16A4                                __pcstackBANK0 0080  
                      _INT2_InterruptHandler 0063                 __size_of_Interrupt_INTx_Init 007C  
                          __CFG_CCP2MX$PORTC 000000                                    __pintcode 0008  
                     ?_Interrupt_INTx_Enable 005D                                  __smallconst 1000  
                 ??_INT2_SetInterruptHandler 005F              Interrupt_INTx_Edge_Init@int_obj 005D  
             ??_gpio_pin_direction_intialize 0080                   ??_Interrupt_INTx_Edge_Init 005F  
                                   _INT0_ISR 16E4                                     _INT1_ISR 16C4  
                                   _INT2_ISR 16A4            __size_of_INT1_SetInterruptHandler 0020  
                                   _INT0_obj 003D                                     _INT1_obj 0036  
                                   _INT2_obj 002F                    ?_INT1_SetInterruptHandler 005D  
                   __end_of_InterruptManager 1270                                     i2u150_48 16B2  
                                   i2u128_44 1416                                     i2u128_45 1412  
                                   i2u146_48 16F2                                     i2u148_48 16D2  
             Interrupt_INTx_Pin_Init@int_obj 0060                             __CFG_WDTPS$32768 000000  
                                _INTCON2bits 000FF1                                  _INTCON3bits 000FF0  
         __size_of_Interrupt_INTx_Clear_Flag 004A                                    copy_data0 1596  
                   ?_Interrupt_INTx_Pin_Init 0060                     _INT0_SetInterruptHandler 1684  
                               ??_led_toggle 0049                         _ecu_layer_initialize 15EE  
                                   __Hrparam 0000                                     __Lrparam 0000  
                    __size_of_led_initizlize 0082                  INT0_SetInterruptHandler@ret 005F  
                  Interrupt_INTx_Disable@ret 005F                           _functionInitialize 172E  
                 Interrupt_INTx_Init@int_obj 0086                           __end_of_btn_values 1011  
                         __end_of_led_toggle 1452                          ?_functionInitialize 0047  
                                   __ptext10 1012                                     __ptext11 1452  
                                   __ptext20 1712                                     __ptext12 1118  
                                   __ptext21 1720                                     __ptext13 14A8  
                                   __ptext22 13EA                                     __ptext14 14F2  
                                   __ptext23 0000                                     __ptext16 16A4  
                                   __ptext17 16C4                                     __ptext18 16E4  
                                   __ptext19 1704      gpio_pin_direction_intialize@LocalReturn 005F  
           Interrupt_INTx_Clear_Flag@int_obj 005D                        ?_ecu_layer_initialize 0047  
                              __size_of_main 0036                         ??_functionInitialize 0061  
                                   int$flags 0069                     ??_Interrupt_INTx_Disable 005F  
                        _Interrupt_INTx_Init 12F2                                   _INTCONbits 000FF2  
            __end_of_Interrupt_INTx_Pin_Init 1644                                     intlevel2 0000  
               Interrupt_INTx_Clear_Flag@ret 005F                         ?_Interrupt_INTx_Init 0086  
      Interrupt_INTx_SetInterruptHandler@ret 0062                   Interrupt_INTx_Pin_Init@ret 0062  
                    ??_Interrupt_INTx_Enable 005F             __end_of_INT1_SetInterruptHandler 1684  
                     ??_ecu_layer_initialize 0060                                _port_register 001B  
                      ??_Interrupt_INTx_Init 0063                            ?_InterruptManager 0047  
